
Main.elf:     file format elf32-avr

Sections:
Idx Name          Size      VMA       LMA       File off  Algn
  0 .data         000001fc  00800100  000016ce  00001762  2**0
                  CONTENTS, ALLOC, LOAD, DATA
  1 .text         000016ce  00000000  00000000  00000094  2**1
                  CONTENTS, ALLOC, LOAD, READONLY, CODE
  2 .bss          000001ae  008002fc  008002fc  0000195e  2**0
                  ALLOC
  3 .comment      0000005c  00000000  00000000  0000195e  2**0
                  CONTENTS, READONLY
  4 .note.gnu.avr.deviceinfo 00000040  00000000  00000000  000019bc  2**2
                  CONTENTS, READONLY
  5 .debug_aranges 00000130  00000000  00000000  000019fc  2**0
                  CONTENTS, READONLY, DEBUGGING
  6 .debug_info   00001f41  00000000  00000000  00001b2c  2**0
                  CONTENTS, READONLY, DEBUGGING
  7 .debug_abbrev 00000b5d  00000000  00000000  00003a6d  2**0
                  CONTENTS, READONLY, DEBUGGING
  8 .debug_line   00000db1  00000000  00000000  000045ca  2**0
                  CONTENTS, READONLY, DEBUGGING
  9 .debug_frame  00000344  00000000  00000000  0000537c  2**2
                  CONTENTS, READONLY, DEBUGGING
 10 .debug_str    000006bf  00000000  00000000  000056c0  2**0
                  CONTENTS, READONLY, DEBUGGING
 11 .debug_loc    00000b9c  00000000  00000000  00005d7f  2**0
                  CONTENTS, READONLY, DEBUGGING
 12 .debug_ranges 00000100  00000000  00000000  0000691b  2**0
                  CONTENTS, READONLY, DEBUGGING

Disassembly of section .text:

00000000 <__vectors>:
       0:	0c 94 f0 00 	jmp	0x1e0	; 0x1e0 <__ctors_end>
       4:	0c 94 0d 01 	jmp	0x21a	; 0x21a <__bad_interrupt>
       8:	0c 94 0d 01 	jmp	0x21a	; 0x21a <__bad_interrupt>
       c:	0c 94 0d 01 	jmp	0x21a	; 0x21a <__bad_interrupt>
      10:	0c 94 0d 01 	jmp	0x21a	; 0x21a <__bad_interrupt>
      14:	0c 94 0d 01 	jmp	0x21a	; 0x21a <__bad_interrupt>
      18:	0c 94 0d 01 	jmp	0x21a	; 0x21a <__bad_interrupt>
      1c:	0c 94 0d 01 	jmp	0x21a	; 0x21a <__bad_interrupt>
      20:	0c 94 0d 01 	jmp	0x21a	; 0x21a <__bad_interrupt>
      24:	0c 94 0d 01 	jmp	0x21a	; 0x21a <__bad_interrupt>
      28:	0c 94 0d 01 	jmp	0x21a	; 0x21a <__bad_interrupt>
      2c:	0c 94 09 03 	jmp	0x612	; 0x612 <__vector_11>
      30:	0c 94 0d 01 	jmp	0x21a	; 0x21a <__bad_interrupt>
      34:	0c 94 0d 01 	jmp	0x21a	; 0x21a <__bad_interrupt>
      38:	0c 94 0d 01 	jmp	0x21a	; 0x21a <__bad_interrupt>
      3c:	0c 94 0d 01 	jmp	0x21a	; 0x21a <__bad_interrupt>
      40:	0c 94 0d 01 	jmp	0x21a	; 0x21a <__bad_interrupt>
      44:	0c 94 0d 01 	jmp	0x21a	; 0x21a <__bad_interrupt>
      48:	0c 94 f9 04 	jmp	0x9f2	; 0x9f2 <__vector_18>
      4c:	0c 94 27 05 	jmp	0xa4e	; 0xa4e <__vector_19>
      50:	0c 94 0d 01 	jmp	0x21a	; 0x21a <__bad_interrupt>
      54:	0c 94 0d 01 	jmp	0x21a	; 0x21a <__bad_interrupt>
      58:	0c 94 0d 01 	jmp	0x21a	; 0x21a <__bad_interrupt>
      5c:	0c 94 0d 01 	jmp	0x21a	; 0x21a <__bad_interrupt>
      60:	0c 94 0d 01 	jmp	0x21a	; 0x21a <__bad_interrupt>
      64:	0c 94 0d 01 	jmp	0x21a	; 0x21a <__bad_interrupt>
      68:	d0 01       	movw	r26, r0
      6a:	5c 02       	muls	r21, r28
      6c:	00 02       	muls	r16, r16
      6e:	5c 02       	muls	r21, r28
      70:	5c 02       	muls	r21, r28
      72:	5c 02       	muls	r21, r28
      74:	5c 02       	muls	r21, r28
      76:	5c 02       	muls	r21, r28
      78:	5c 02       	muls	r21, r28
      7a:	5c 02       	muls	r21, r28
      7c:	5c 02       	muls	r21, r28
      7e:	5c 02       	muls	r21, r28
      80:	5c 02       	muls	r21, r28
      82:	5c 02       	muls	r21, r28
      84:	5c 02       	muls	r21, r28
      86:	5c 02       	muls	r21, r28
      88:	5c 02       	muls	r21, r28
      8a:	5c 02       	muls	r21, r28
      8c:	5c 02       	muls	r21, r28
      8e:	5c 02       	muls	r21, r28
      90:	5c 02       	muls	r21, r28
      92:	5c 02       	muls	r21, r28
      94:	5c 02       	muls	r21, r28
      96:	5c 02       	muls	r21, r28
      98:	5c 02       	muls	r21, r28
      9a:	5c 02       	muls	r21, r28
      9c:	5c 02       	muls	r21, r28
      9e:	5c 02       	muls	r21, r28
      a0:	5c 02       	muls	r21, r28
      a2:	5c 02       	muls	r21, r28
      a4:	5c 02       	muls	r21, r28
      a6:	5c 02       	muls	r21, r28
      a8:	5c 02       	muls	r21, r28
      aa:	5c 02       	muls	r21, r28
      ac:	5c 02       	muls	r21, r28
      ae:	5c 02       	muls	r21, r28
      b0:	5c 02       	muls	r21, r28
      b2:	a7 01       	movw	r20, r14
      b4:	5c 02       	muls	r21, r28
      b6:	2c 02       	muls	r18, r28
      b8:	38 02       	muls	r19, r24
      ba:	5c 02       	muls	r21, r28
      bc:	5c 02       	muls	r21, r28
      be:	71 01       	movw	r14, r2
      c0:	5c 02       	muls	r21, r28
      c2:	42 02       	muls	r20, r18
      c4:	5c 02       	muls	r21, r28
      c6:	5c 02       	muls	r21, r28
      c8:	5c 02       	muls	r21, r28
      ca:	5c 02       	muls	r21, r28
      cc:	5c 02       	muls	r21, r28
      ce:	5c 02       	muls	r21, r28
      d0:	5c 02       	muls	r21, r28
      d2:	5c 02       	muls	r21, r28
      d4:	5c 02       	muls	r21, r28
      d6:	5c 02       	muls	r21, r28
      d8:	5c 02       	muls	r21, r28
      da:	5c 02       	muls	r21, r28
      dc:	90 01       	movw	r18, r0

000000de <__trampolines_end>:
      de:	6e 61       	ori	r22, 0x1E	; 30
      e0:	6e 00       	.word	0x006e	; ????

000000e2 <__c.2332>:
      e2:	69 6e 66 00 00 40 7a 10 f3 5a 00 a0 72 4e 18 09     inf..@z..Z..rN..
      f2:	00 10 a5 d4 e8 00 00 e8 76 48 17 00 00 e4 0b 54     ........vH.....T
     102:	02 00 00 ca 9a 3b 00 00 00 e1 f5 05 00 00 80 96     .....;..........
     112:	98 00 00 00 40 42 0f 00 00 00 a0 86 01 00 00 00     ....@B..........
     122:	10 27 00 00 00 00 e8 03 00 00 00 00 64 00 00 00     .'..........d...
     132:	00 00 0a 00 00 00 00 00 01 00 00 00 00 00 2c 76     ..............,v
     142:	d8 88 dc 67 4f 08 23 df c1 df ae 59 e1 b1 b7 96     ...gO.#....Y....
     152:	e5 e3 e4 53 c6 3a e6 51 99 76 96 e8 e6 c2 84 26     ...S.:.Q.v.....&
     162:	eb 89 8c 9b 62 ed 40 7c 6f fc ef bc 9c 9f 40 f2     ....b.@|o.....@.
     172:	ba a5 6f a5 f4 90 05 5a 2a f7 5c 93 6b 6c f9 67     ..o....Z*.\.kl.g
     182:	6d c1 1b fc e0 e4 0d 47 fe f5 20 e6 b5 00 d0 ed     m......G.. .....
     192:	90 2e 03 00 94 35 77 05 00 80 84 1e 08 00 00 20     .....5w........ 
     1a2:	4e 0a 00 00 00 c8 0c 33 33 33 33 0f 98 6e 12 83     N......3333..n..
     1b2:	11 41 ef 8d 21 14 89 3b e6 55 16 cf fe e6 db 18     .A..!..;.U......
     1c2:	d1 84 4b 38 1b f7 7c 1d 90 1d a4 bb e4 24 20 32     ..K8..|......$ 2
     1d2:	84 72 5e 22 81 00 c9 f1 24 ec a1 e5 3d 27           .r^"....$...='

000001e0 <__ctors_end>:
     1e0:	11 24       	eor	r1, r1
     1e2:	1f be       	out	0x3f, r1	; 63
     1e4:	cf ef       	ldi	r28, 0xFF	; 255
     1e6:	d8 e0       	ldi	r29, 0x08	; 8
     1e8:	de bf       	out	0x3e, r29	; 62
     1ea:	cd bf       	out	0x3d, r28	; 61

000001ec <__do_copy_data>:
     1ec:	12 e0       	ldi	r17, 0x02	; 2
     1ee:	a0 e0       	ldi	r26, 0x00	; 0
     1f0:	b1 e0       	ldi	r27, 0x01	; 1
     1f2:	ee ec       	ldi	r30, 0xCE	; 206
     1f4:	f6 e1       	ldi	r31, 0x16	; 22
     1f6:	02 c0       	rjmp	.+4      	; 0x1fc <__do_copy_data+0x10>
     1f8:	05 90       	lpm	r0, Z+
     1fa:	0d 92       	st	X+, r0
     1fc:	ac 3f       	cpi	r26, 0xFC	; 252
     1fe:	b1 07       	cpc	r27, r17
     200:	d9 f7       	brne	.-10     	; 0x1f8 <__do_copy_data+0xc>

00000202 <__do_clear_bss>:
     202:	24 e0       	ldi	r18, 0x04	; 4
     204:	ac ef       	ldi	r26, 0xFC	; 252
     206:	b2 e0       	ldi	r27, 0x02	; 2
     208:	01 c0       	rjmp	.+2      	; 0x20c <.do_clear_bss_start>

0000020a <.do_clear_bss_loop>:
     20a:	1d 92       	st	X+, r1

0000020c <.do_clear_bss_start>:
     20c:	aa 3a       	cpi	r26, 0xAA	; 170
     20e:	b2 07       	cpc	r27, r18
     210:	e1 f7       	brne	.-8      	; 0x20a <.do_clear_bss_loop>
     212:	0e 94 bf 04 	call	0x97e	; 0x97e <main>
     216:	0c 94 65 0b 	jmp	0x16ca	; 0x16ca <_exit>

0000021a <__bad_interrupt>:
     21a:	0c 94 00 00 	jmp	0	; 0x0 <__vectors>

0000021e <print_int>:
	itoa(value, buffer, 10);
	uart_putc(id);
	uart_putc('=');
	uart_puts(buffer);
	uart_putc('\n');
}
     21e:	1f 93       	push	r17
     220:	cf 93       	push	r28
     222:	df 93       	push	r29
     224:	cd b7       	in	r28, 0x3d	; 61
     226:	de b7       	in	r29, 0x3e	; 62
     228:	28 97       	sbiw	r28, 0x08	; 8
     22a:	0f b6       	in	r0, 0x3f	; 63
     22c:	f8 94       	cli
     22e:	de bf       	out	0x3e, r29	; 62
     230:	0f be       	out	0x3f, r0	; 63
     232:	cd bf       	out	0x3d, r28	; 61
     234:	16 2f       	mov	r17, r22
     236:	4a e0       	ldi	r20, 0x0A	; 10
     238:	be 01       	movw	r22, r28
     23a:	6f 5f       	subi	r22, 0xFF	; 255
     23c:	7f 4f       	sbci	r23, 0xFF	; 255
     23e:	0e 94 8e 0a 	call	0x151c	; 0x151c <__itoa_ncheck>
     242:	ce 01       	movw	r24, r28
     244:	01 96       	adiw	r24, 0x01	; 1
     246:	0e 94 98 05 	call	0xb30	; 0xb30 <uart_puts>
     24a:	11 23       	and	r17, r17
     24c:	21 f0       	breq	.+8      	; 0x256 <print_int+0x38>
     24e:	82 ef       	ldi	r24, 0xF2	; 242
     250:	91 e0       	ldi	r25, 0x01	; 1
     252:	0e 94 98 05 	call	0xb30	; 0xb30 <uart_puts>
     256:	28 96       	adiw	r28, 0x08	; 8
     258:	0f b6       	in	r0, 0x3f	; 63
     25a:	f8 94       	cli
     25c:	de bf       	out	0x3e, r29	; 62
     25e:	0f be       	out	0x3f, r0	; 63
     260:	cd bf       	out	0x3d, r28	; 61
     262:	df 91       	pop	r29
     264:	cf 91       	pop	r28
     266:	1f 91       	pop	r17
     268:	08 95       	ret

0000026a <read_int_value>:
		}
	}	
}

unsigned long read_int_value ()
{
     26a:	cf 93       	push	r28
     26c:	df 93       	push	r29
     26e:	cd b7       	in	r28, 0x3d	; 61
     270:	de b7       	in	r29, 0x3e	; 62
     272:	60 97       	sbiw	r28, 0x10	; 16
     274:	0f b6       	in	r0, 0x3f	; 63
     276:	f8 94       	cli
     278:	de bf       	out	0x3e, r29	; 62
     27a:	0f be       	out	0x3f, r0	; 63
     27c:	cd bf       	out	0x3d, r28	; 61
	char *pch;
	char cmdValue[16];
	// Find the position the equals sign is
	// in the string, keep a pointer to it
	pch = strchr(command_in, '=');
     27e:	6d e3       	ldi	r22, 0x3D	; 61
     280:	70 e0       	ldi	r23, 0x00	; 0
     282:	8d e6       	ldi	r24, 0x6D	; 109
     284:	93 e0       	ldi	r25, 0x03	; 3
     286:	0e 94 71 0a 	call	0x14e2	; 0x14e2 <strchr>
	// Copy everything after that point into
	// the buffer variable
	strcpy(cmdValue, pch+1);
     28a:	bc 01       	movw	r22, r24
     28c:	6f 5f       	subi	r22, 0xFF	; 255
     28e:	7f 4f       	sbci	r23, 0xFF	; 255
     290:	ce 01       	movw	r24, r28
     292:	01 96       	adiw	r24, 0x01	; 1
     294:	0e 94 7c 0a 	call	0x14f8	; 0x14f8 <strcpy>
	// Now turn this value into an integer and
	// return it to the caller.
	return atoi(cmdValue);
     298:	ce 01       	movw	r24, r28
     29a:	01 96       	adiw	r24, 0x01	; 1
     29c:	0e 94 70 09 	call	0x12e0	; 0x12e0 <atoi>
     2a0:	bc 01       	movw	r22, r24
     2a2:	99 0f       	add	r25, r25
     2a4:	88 0b       	sbc	r24, r24
     2a6:	99 0b       	sbc	r25, r25
}
     2a8:	60 96       	adiw	r28, 0x10	; 16
     2aa:	0f b6       	in	r0, 0x3f	; 63
     2ac:	f8 94       	cli
     2ae:	de bf       	out	0x3e, r29	; 62
     2b0:	0f be       	out	0x3f, r0	; 63
     2b2:	cd bf       	out	0x3d, r28	; 61
     2b4:	df 91       	pop	r29
     2b6:	cf 91       	pop	r28
     2b8:	08 95       	ret

000002ba <process_command>:

void process_command()
{
     2ba:	cf 92       	push	r12
     2bc:	df 92       	push	r13
     2be:	ef 92       	push	r14
     2c0:	ff 92       	push	r15
     2c2:	cf 93       	push	r28
     2c4:	df 93       	push	r29
	uint16_t val = 0;
	switch (command_in[0]) {
     2c6:	e0 91 6d 03 	lds	r30, 0x036D	; 0x80036d <command_in>
     2ca:	8e 2f       	mov	r24, r30
     2cc:	90 e0       	ldi	r25, 0x00	; 0
     2ce:	fc 01       	movw	r30, r24
     2d0:	bb 97       	sbiw	r30, 0x2b	; 43
     2d2:	eb 33       	cpi	r30, 0x3B	; 59
     2d4:	f1 05       	cpc	r31, r1
     2d6:	08 f0       	brcs	.+2      	; 0x2da <process_command+0x20>
     2d8:	ef c0       	rjmp	.+478    	; 0x4b8 <__LOCK_REGION_LENGTH__+0xb8>
     2da:	ec 5c       	subi	r30, 0xCC	; 204
     2dc:	ff 4f       	sbci	r31, 0xFF	; 255
     2de:	0c 94 24 09 	jmp	0x1248	; 0x1248 <__tablejump2__>
			
		case 'V':	/* duty cycle */
		if (command_in[1] == '=') {
     2e2:	80 91 6e 03 	lds	r24, 0x036E	; 0x80036e <command_in+0x1>
     2e6:	8d 33       	cpi	r24, 0x3D	; 61
     2e8:	41 f4       	brne	.+16     	; 0x2fa <process_command+0x40>
			val = read_int_value();}
     2ea:	0e 94 35 01 	call	0x26a	; 0x26a <read_int_value>
     2ee:	eb 01       	movw	r28, r22

		if (val>=0 && val<=255)
     2f0:	6f 3f       	cpi	r22, 0xFF	; 255
     2f2:	71 05       	cpc	r23, r1
     2f4:	09 f0       	breq	.+2      	; 0x2f8 <process_command+0x3e>
     2f6:	78 f4       	brcc	.+30     	; 0x316 <process_command+0x5c>
     2f8:	02 c0       	rjmp	.+4      	; 0x2fe <process_command+0x44>
	return atoi(cmdValue);
}

void process_command()
{
	uint16_t val = 0;
     2fa:	c0 e0       	ldi	r28, 0x00	; 0
     2fc:	d0 e0       	ldi	r29, 0x00	; 0
		if (command_in[1] == '=') {
			val = read_int_value();}

		if (val>=0 && val<=255)
		{
			set_motor_speed(val);
     2fe:	8c 2f       	mov	r24, r28
     300:	0e 94 0f 04 	call	0x81e	; 0x81e <set_motor_speed>
			uart_puts("Speed = ");
     304:	80 e0       	ldi	r24, 0x00	; 0
     306:	91 e0       	ldi	r25, 0x01	; 1
     308:	0e 94 98 05 	call	0xb30	; 0xb30 <uart_puts>
			print_int(val, TRUE);
     30c:	61 e0       	ldi	r22, 0x01	; 1
     30e:	ce 01       	movw	r24, r28
     310:	0e 94 0f 01 	call	0x21e	; 0x21e <print_int>
     314:	e7 c0       	rjmp	.+462    	; 0x4e4 <__LOCK_REGION_LENGTH__+0xe4>
		}
		else
		{
			uart_puts("Speed not in range of 0-255\n");
     316:	89 e0       	ldi	r24, 0x09	; 9
     318:	91 e0       	ldi	r25, 0x01	; 1
     31a:	0e 94 98 05 	call	0xb30	; 0xb30 <uart_puts>
     31e:	e2 c0       	rjmp	.+452    	; 0x4e4 <__LOCK_REGION_LENGTH__+0xe4>
		}
		break;	
		
		case 'e':	/* direction test */
		if (command_in[1] == '=') {
     320:	80 91 6e 03 	lds	r24, 0x036E	; 0x80036e <command_in+0x1>
     324:	8d 33       	cpi	r24, 0x3D	; 61
     326:	41 f4       	brne	.+16     	; 0x338 <process_command+0x7e>
		val = read_int_value();}
     328:	0e 94 35 01 	call	0x26a	; 0x26a <read_int_value>
     32c:	eb 01       	movw	r28, r22

		if (val>=0 && val<=100)
     32e:	65 36       	cpi	r22, 0x65	; 101
     330:	71 05       	cpc	r23, r1
     332:	08 f0       	brcs	.+2      	; 0x336 <process_command+0x7c>
     334:	d7 c0       	rjmp	.+430    	; 0x4e4 <__LOCK_REGION_LENGTH__+0xe4>
     336:	02 c0       	rjmp	.+4      	; 0x33c <process_command+0x82>
	return atoi(cmdValue);
}

void process_command()
{
	uint16_t val = 0;
     338:	c0 e0       	ldi	r28, 0x00	; 0
     33a:	d0 e0       	ldi	r29, 0x00	; 0
		if (command_in[1] == '=') {
		val = read_int_value();}

		if (val>=0 && val<=100)
		{
			uart_puts("e value = ");
     33c:	86 e2       	ldi	r24, 0x26	; 38
     33e:	91 e0       	ldi	r25, 0x01	; 1
     340:	0e 94 98 05 	call	0xb30	; 0xb30 <uart_puts>
			print_int(val, TRUE);
     344:	61 e0       	ldi	r22, 0x01	; 1
     346:	ce 01       	movw	r24, r28
     348:	0e 94 0f 01 	call	0x21e	; 0x21e <print_int>
     34c:	cb c0       	rjmp	.+406    	; 0x4e4 <__LOCK_REGION_LENGTH__+0xe4>
		}
		break;
		
		case 'P':	/* Setpoint Angle */
		if (command_in[1] == '=') 
     34e:	80 91 6e 03 	lds	r24, 0x036E	; 0x80036e <command_in+0x1>
     352:	8d 33       	cpi	r24, 0x3D	; 61
     354:	09 f0       	breq	.+2      	; 0x358 <process_command+0x9e>
     356:	c6 c0       	rjmp	.+396    	; 0x4e4 <__LOCK_REGION_LENGTH__+0xe4>
		{
			if ((!device.multiply_movement) && (device.status==DONE))
     358:	80 91 a8 04 	lds	r24, 0x04A8	; 0x8004a8 <device+0xe>
     35c:	81 11       	cpse	r24, r1
     35e:	c2 c0       	rjmp	.+388    	; 0x4e4 <__LOCK_REGION_LENGTH__+0xe4>
     360:	80 91 a9 04 	lds	r24, 0x04A9	; 0x8004a9 <device+0xf>
     364:	81 11       	cpse	r24, r1
     366:	be c0       	rjmp	.+380    	; 0x4e4 <__LOCK_REGION_LENGTH__+0xe4>
			{
				val = read_int_value();
     368:	0e 94 35 01 	call	0x26a	; 0x26a <read_int_value>
     36c:	6b 01       	movw	r12, r22
     36e:	7c 01       	movw	r14, r24
				if (val>=0 && val<=255)
     370:	8f ef       	ldi	r24, 0xFF	; 255
     372:	c8 16       	cp	r12, r24
     374:	d1 04       	cpc	r13, r1
     376:	09 f0       	breq	.+2      	; 0x37a <process_command+0xc0>
     378:	70 f4       	brcc	.+28     	; 0x396 <process_command+0xdc>
				{
					device.setpoint_angle = val;
     37a:	ea e9       	ldi	r30, 0x9A	; 154
     37c:	f4 e0       	ldi	r31, 0x04	; 4
     37e:	c2 82       	std	Z+2, r12	; 0x02
					device.min_act_on_error=MIN_ACT_ON_ERROR_DEFAULT;
     380:	83 e0       	ldi	r24, 0x03	; 3
     382:	86 83       	std	Z+6, r24	; 0x06
					uart_puts("Setpoint = ");
     384:	81 e3       	ldi	r24, 0x31	; 49
     386:	91 e0       	ldi	r25, 0x01	; 1
     388:	0e 94 98 05 	call	0xb30	; 0xb30 <uart_puts>
					print_int(val, TRUE);
     38c:	61 e0       	ldi	r22, 0x01	; 1
     38e:	c6 01       	movw	r24, r12
     390:	0e 94 0f 01 	call	0x21e	; 0x21e <print_int>
     394:	a7 c0       	rjmp	.+334    	; 0x4e4 <__LOCK_REGION_LENGTH__+0xe4>
				}
				else
				{
					uart_puts("Setpoint not in range 0-255\n");
     396:	8d e3       	ldi	r24, 0x3D	; 61
     398:	91 e0       	ldi	r25, 0x01	; 1
     39a:	0e 94 98 05 	call	0xb30	; 0xb30 <uart_puts>
     39e:	a2 c0       	rjmp	.+324    	; 0x4e4 <__LOCK_REGION_LENGTH__+0xe4>
		}

		break;
		
		case '+':	/* Setpoint Angle + */
			if (command_in[1] == '=')
     3a0:	80 91 6e 03 	lds	r24, 0x036E	; 0x80036e <command_in+0x1>
     3a4:	8d 33       	cpi	r24, 0x3D	; 61
     3a6:	09 f0       	breq	.+2      	; 0x3aa <process_command+0xf0>
     3a8:	9d c0       	rjmp	.+314    	; 0x4e4 <__LOCK_REGION_LENGTH__+0xe4>
			{
				if ((!device.multiply_movement) && (device.status==DONE))
     3aa:	80 91 a8 04 	lds	r24, 0x04A8	; 0x8004a8 <device+0xe>
     3ae:	81 11       	cpse	r24, r1
     3b0:	99 c0       	rjmp	.+306    	; 0x4e4 <__LOCK_REGION_LENGTH__+0xe4>
     3b2:	80 91 a9 04 	lds	r24, 0x04A9	; 0x8004a9 <device+0xf>
     3b6:	81 11       	cpse	r24, r1
     3b8:	95 c0       	rjmp	.+298    	; 0x4e4 <__LOCK_REGION_LENGTH__+0xe4>
				{
					val = read_int_value();
     3ba:	0e 94 35 01 	call	0x26a	; 0x26a <read_int_value>
					if (val>0 && val<=MAX_DEGREES)
     3be:	9b 01       	movw	r18, r22
     3c0:	21 50       	subi	r18, 0x01	; 1
     3c2:	31 09       	sbc	r19, r1
     3c4:	29 36       	cpi	r18, 0x69	; 105
     3c6:	31 05       	cpc	r19, r1
     3c8:	b0 f4       	brcc	.+44     	; 0x3f6 <process_command+0x13c>
					{
						device.setpoint_angle += val;
						device.setpoint_angle = (device.setpoint_angle >= MAX_DEGREES) ? MAX_DEGREES : device.setpoint_angle;
     3ca:	ea e9       	ldi	r30, 0x9A	; 154
     3cc:	f4 e0       	ldi	r31, 0x04	; 4
     3ce:	22 81       	ldd	r18, Z+2	; 0x02
     3d0:	62 0f       	add	r22, r18
     3d2:	6a 36       	cpi	r22, 0x6A	; 106
     3d4:	08 f0       	brcs	.+2      	; 0x3d8 <process_command+0x11e>
     3d6:	69 e6       	ldi	r22, 0x69	; 105
     3d8:	62 83       	std	Z+2, r22	; 0x02
						device.min_act_on_error=MIN_ACT_ON_ERROR_DEFAULT;
     3da:	ca e9       	ldi	r28, 0x9A	; 154
     3dc:	d4 e0       	ldi	r29, 0x04	; 4
     3de:	83 e0       	ldi	r24, 0x03	; 3
     3e0:	8e 83       	std	Y+6, r24	; 0x06
						uart_puts("Setpoint = ");
     3e2:	81 e3       	ldi	r24, 0x31	; 49
     3e4:	91 e0       	ldi	r25, 0x01	; 1
     3e6:	0e 94 98 05 	call	0xb30	; 0xb30 <uart_puts>
						print_int(device.setpoint_angle, TRUE);
     3ea:	8a 81       	ldd	r24, Y+2	; 0x02
     3ec:	61 e0       	ldi	r22, 0x01	; 1
     3ee:	90 e0       	ldi	r25, 0x00	; 0
     3f0:	0e 94 0f 01 	call	0x21e	; 0x21e <print_int>
     3f4:	77 c0       	rjmp	.+238    	; 0x4e4 <__LOCK_REGION_LENGTH__+0xe4>
					}
					else
					{
						uart_puts("Setpoint not in range too big\n");
     3f6:	8a e5       	ldi	r24, 0x5A	; 90
     3f8:	91 e0       	ldi	r25, 0x01	; 1
     3fa:	0e 94 98 05 	call	0xb30	; 0xb30 <uart_puts>
     3fe:	72 c0       	rjmp	.+228    	; 0x4e4 <__LOCK_REGION_LENGTH__+0xe4>
				}
			}
		break;
		
		case '-':	/* Setpoint Angle - */
			if (command_in[1] == '=')
     400:	80 91 6e 03 	lds	r24, 0x036E	; 0x80036e <command_in+0x1>
     404:	8d 33       	cpi	r24, 0x3D	; 61
     406:	09 f0       	breq	.+2      	; 0x40a <__LOCK_REGION_LENGTH__+0xa>
     408:	6d c0       	rjmp	.+218    	; 0x4e4 <__LOCK_REGION_LENGTH__+0xe4>
			{
				if ((!device.multiply_movement) && (device.status==DONE))
     40a:	80 91 a8 04 	lds	r24, 0x04A8	; 0x8004a8 <device+0xe>
     40e:	81 11       	cpse	r24, r1
     410:	69 c0       	rjmp	.+210    	; 0x4e4 <__LOCK_REGION_LENGTH__+0xe4>
     412:	80 91 a9 04 	lds	r24, 0x04A9	; 0x8004a9 <device+0xf>
     416:	81 11       	cpse	r24, r1
     418:	65 c0       	rjmp	.+202    	; 0x4e4 <__LOCK_REGION_LENGTH__+0xe4>
				{
					val = read_int_value();
     41a:	0e 94 35 01 	call	0x26a	; 0x26a <read_int_value>
					if (device.setpoint_angle >= val)
     41e:	40 91 9c 04 	lds	r20, 0x049C	; 0x80049c <device+0x2>
     422:	24 2f       	mov	r18, r20
     424:	30 e0       	ldi	r19, 0x00	; 0
     426:	26 17       	cp	r18, r22
     428:	37 07       	cpc	r19, r23
     42a:	88 f0       	brcs	.+34     	; 0x44e <__LOCK_REGION_LENGTH__+0x4e>
					{
						device.setpoint_angle -= val;
     42c:	ca e9       	ldi	r28, 0x9A	; 154
     42e:	d4 e0       	ldi	r29, 0x04	; 4
     430:	84 2f       	mov	r24, r20
     432:	86 1b       	sub	r24, r22
     434:	8a 83       	std	Y+2, r24	; 0x02
						device.min_act_on_error=MIN_ACT_ON_ERROR_DEFAULT;
     436:	83 e0       	ldi	r24, 0x03	; 3
     438:	8e 83       	std	Y+6, r24	; 0x06
						uart_puts("Setpoint = ");
     43a:	81 e3       	ldi	r24, 0x31	; 49
     43c:	91 e0       	ldi	r25, 0x01	; 1
     43e:	0e 94 98 05 	call	0xb30	; 0xb30 <uart_puts>
						print_int(device.setpoint_angle, TRUE);
     442:	8a 81       	ldd	r24, Y+2	; 0x02
     444:	61 e0       	ldi	r22, 0x01	; 1
     446:	90 e0       	ldi	r25, 0x00	; 0
     448:	0e 94 0f 01 	call	0x21e	; 0x21e <print_int>
     44c:	4b c0       	rjmp	.+150    	; 0x4e4 <__LOCK_REGION_LENGTH__+0xe4>
					}
					else
					{
						uart_puts("Setpoint not in range, too small\n");
     44e:	89 e7       	ldi	r24, 0x79	; 121
     450:	91 e0       	ldi	r25, 0x01	; 1
     452:	0e 94 98 05 	call	0xb30	; 0xb30 <uart_puts>
     456:	46 c0       	rjmp	.+140    	; 0x4e4 <__LOCK_REGION_LENGTH__+0xe4>
				}
			}
		break;
		
		case 'R':	/* Reset */
			device.movementEnabled = TRUE;
     458:	ea e9       	ldi	r30, 0x9A	; 154
     45a:	f4 e0       	ldi	r31, 0x04	; 4
     45c:	81 e0       	ldi	r24, 0x01	; 1
     45e:	85 87       	std	Z+13, r24	; 0x0d
			device.multiply_movement = 0;
     460:	16 86       	std	Z+14, r1	; 0x0e
			device.min_act_on_error=MIN_ACT_ON_ERROR_DEFAULT;
     462:	83 e0       	ldi	r24, 0x03	; 3
     464:	86 83       	std	Z+6, r24	; 0x06
			uart_puts("Reset");
     466:	8b e9       	ldi	r24, 0x9B	; 155
     468:	91 e0       	ldi	r25, 0x01	; 1
     46a:	0e 94 98 05 	call	0xb30	; 0xb30 <uart_puts>
		break;
     46e:	3a c0       	rjmp	.+116    	; 0x4e4 <__LOCK_REGION_LENGTH__+0xe4>
		
		case 'S':	/* STOP */
			device.movementEnabled = FALSE;
     470:	ea e9       	ldi	r30, 0x9A	; 154
     472:	f4 e0       	ldi	r31, 0x04	; 4
     474:	15 86       	std	Z+13, r1	; 0x0d
			device.status=STOP;
     476:	83 e0       	ldi	r24, 0x03	; 3
     478:	87 87       	std	Z+15, r24	; 0x0f
			uart_puts("STOP!");
     47a:	81 ea       	ldi	r24, 0xA1	; 161
     47c:	91 e0       	ldi	r25, 0x01	; 1
     47e:	0e 94 98 05 	call	0xb30	; 0xb30 <uart_puts>
		break;
     482:	30 c0       	rjmp	.+96     	; 0x4e4 <__LOCK_REGION_LENGTH__+0xe4>
		
		case 'X':	/* Action for X times */
		if (command_in[1] == '=')
     484:	80 91 6e 03 	lds	r24, 0x036E	; 0x80036e <command_in+0x1>
     488:	8d 33       	cpi	r24, 0x3D	; 61
     48a:	61 f5       	brne	.+88     	; 0x4e4 <__LOCK_REGION_LENGTH__+0xe4>
		{
			val = read_int_value();
     48c:	0e 94 35 01 	call	0x26a	; 0x26a <read_int_value>
			if (val>=0 && val<=100)
     490:	65 36       	cpi	r22, 0x65	; 101
     492:	71 05       	cpc	r23, r1
     494:	60 f4       	brcc	.+24     	; 0x4ae <__LOCK_REGION_LENGTH__+0xae>
			{
				device.setpoint_angle_previous = device.setpoint_angle;	// save current setpoint
     496:	ea e9       	ldi	r30, 0x9A	; 154
     498:	f4 e0       	ldi	r31, 0x04	; 4
     49a:	22 81       	ldd	r18, Z+2	; 0x02
     49c:	23 83       	std	Z+3, r18	; 0x03
				device.multiply_movement = val;
     49e:	66 87       	std	Z+14, r22	; 0x0e
				device.min_act_on_error=MIN_ACT_ON_ERROR_DEFAULT;
     4a0:	83 e0       	ldi	r24, 0x03	; 3
     4a2:	86 83       	std	Z+6, r24	; 0x06
				uart_puts("Doing auto movement\n");
     4a4:	87 ea       	ldi	r24, 0xA7	; 167
     4a6:	91 e0       	ldi	r25, 0x01	; 1
     4a8:	0e 94 98 05 	call	0xb30	; 0xb30 <uart_puts>
     4ac:	1b c0       	rjmp	.+54     	; 0x4e4 <__LOCK_REGION_LENGTH__+0xe4>
			}
			else
			{
				uart_puts("Multiply movement not in range\n");
     4ae:	8c eb       	ldi	r24, 0xBC	; 188
     4b0:	91 e0       	ldi	r25, 0x01	; 1
     4b2:	0e 94 98 05 	call	0xb30	; 0xb30 <uart_puts>
     4b6:	16 c0       	rjmp	.+44     	; 0x4e4 <__LOCK_REGION_LENGTH__+0xe4>
			}
		}
		break;
				
		default:
		uart_puts("No valid command:");
     4b8:	8c ed       	ldi	r24, 0xDC	; 220
     4ba:	91 e0       	ldi	r25, 0x01	; 1
     4bc:	0e 94 98 05 	call	0xb30	; 0xb30 <uart_puts>
		uart_putc(command_in[0]);
     4c0:	cd e6       	ldi	r28, 0x6D	; 109
     4c2:	d3 e0       	ldi	r29, 0x03	; 3
     4c4:	88 81       	ld	r24, Y
     4c6:	0e 94 83 05 	call	0xb06	; 0xb06 <uart_putc>
		uart_puts(" (");
     4ca:	8e ee       	ldi	r24, 0xEE	; 238
     4cc:	91 e0       	ldi	r25, 0x01	; 1
     4ce:	0e 94 98 05 	call	0xb30	; 0xb30 <uart_puts>
		print_int(command_in[0], 0);
     4d2:	88 81       	ld	r24, Y
     4d4:	60 e0       	ldi	r22, 0x00	; 0
     4d6:	90 e0       	ldi	r25, 0x00	; 0
     4d8:	0e 94 0f 01 	call	0x21e	; 0x21e <print_int>
		uart_puts(")\n");
     4dc:	81 ef       	ldi	r24, 0xF1	; 241
     4de:	91 e0       	ldi	r25, 0x01	; 1
     4e0:	0e 94 98 05 	call	0xb30	; 0xb30 <uart_puts>
		break;	
	}
	command_ready = FALSE;
     4e4:	10 92 35 04 	sts	0x0435, r1	; 0x800435 <command_ready>
}
     4e8:	df 91       	pop	r29
     4ea:	cf 91       	pop	r28
     4ec:	ff 90       	pop	r15
     4ee:	ef 90       	pop	r14
     4f0:	df 90       	pop	r13
     4f2:	cf 90       	pop	r12
     4f4:	08 95       	ret

000004f6 <get_serial>:
	uart_puts(buffer);
	uart_putc('\n');
}

void get_serial(void)
{
     4f6:	cf 93       	push	r28
	unsigned int c = uart_getc();
     4f8:	0e 94 6a 05 	call	0xad4	; 0xad4 <uart_getc>
	if (!(c & UART_NO_DATA)	// If data is correct
	&&	!(c & UART_FRAME_ERROR)
	&&	!(c & UART_OVERRUN_ERROR)
	&&	!(c & UART_BUFFER_OVERFLOW)
     4fc:	9c 01       	movw	r18, r24
     4fe:	22 27       	eor	r18, r18
     500:	3b 71       	andi	r19, 0x1B	; 27
     502:	23 2b       	or	r18, r19
     504:	09 f0       	breq	.+2      	; 0x508 <get_serial+0x12>
     506:	43 c0       	rjmp	.+134    	; 0x58e <get_serial+0x98>
	)
	{
		command_in[data_count] = c;
     508:	e0 91 6c 03 	lds	r30, 0x036C	; 0x80036c <data_count>
     50c:	f0 e0       	ldi	r31, 0x00	; 0
     50e:	e3 59       	subi	r30, 0x93	; 147
     510:	fc 4f       	sbci	r31, 0xFC	; 252
     512:	80 83       	st	Z, r24
		if ((command_in[data_count] == '\n') || (command_in[data_count] == '\r'))
     514:	e0 91 6c 03 	lds	r30, 0x036C	; 0x80036c <data_count>
     518:	f0 e0       	ldi	r31, 0x00	; 0
     51a:	e3 59       	subi	r30, 0x93	; 147
     51c:	fc 4f       	sbci	r31, 0xFC	; 252
     51e:	80 81       	ld	r24, Z
     520:	8a 30       	cpi	r24, 0x0A	; 10
     522:	41 f0       	breq	.+16     	; 0x534 <get_serial+0x3e>
     524:	e0 91 6c 03 	lds	r30, 0x036C	; 0x80036c <data_count>
     528:	f0 e0       	ldi	r31, 0x00	; 0
     52a:	e3 59       	subi	r30, 0x93	; 147
     52c:	fc 4f       	sbci	r31, 0xFC	; 252
     52e:	80 81       	ld	r24, Z
     530:	8d 30       	cpi	r24, 0x0D	; 13
     532:	41 f5       	brne	.+80     	; 0x584 <get_serial+0x8e>
		{
			uart_puts("Received =<");
     534:	84 ef       	ldi	r24, 0xF4	; 244
     536:	91 e0       	ldi	r25, 0x01	; 1
     538:	0e 94 98 05 	call	0xb30	; 0xb30 <uart_puts>
			for(uint8_t i=0; i<data_count; i++) {
     53c:	80 91 6c 03 	lds	r24, 0x036C	; 0x80036c <data_count>
     540:	88 23       	and	r24, r24
     542:	69 f0       	breq	.+26     	; 0x55e <get_serial+0x68>
     544:	c0 e0       	ldi	r28, 0x00	; 0
				uart_putc(command_in[i]);
     546:	ec 2f       	mov	r30, r28
     548:	f0 e0       	ldi	r31, 0x00	; 0
     54a:	e3 59       	subi	r30, 0x93	; 147
     54c:	fc 4f       	sbci	r31, 0xFC	; 252
     54e:	80 81       	ld	r24, Z
     550:	0e 94 83 05 	call	0xb06	; 0xb06 <uart_putc>
	{
		command_in[data_count] = c;
		if ((command_in[data_count] == '\n') || (command_in[data_count] == '\r'))
		{
			uart_puts("Received =<");
			for(uint8_t i=0; i<data_count; i++) {
     554:	cf 5f       	subi	r28, 0xFF	; 255
     556:	80 91 6c 03 	lds	r24, 0x036C	; 0x80036c <data_count>
     55a:	c8 17       	cp	r28, r24
     55c:	a0 f3       	brcs	.-24     	; 0x546 <get_serial+0x50>
				uart_putc(command_in[i]);
			}
			uart_puts(">\n");
     55e:	80 e0       	ldi	r24, 0x00	; 0
     560:	92 e0       	ldi	r25, 0x02	; 2
     562:	0e 94 98 05 	call	0xb30	; 0xb30 <uart_puts>
			
			command_ready = TRUE;
     566:	81 e0       	ldi	r24, 0x01	; 1
     568:	80 93 35 04 	sts	0x0435, r24	; 0x800435 <command_ready>
			process_command();
     56c:	0e 94 5d 01 	call	0x2ba	; 0x2ba <process_command>
			data_count = 0;	// reset
     570:	10 92 6c 03 	sts	0x036C, r1	; 0x80036c <data_count>
			memset(command_in, 0, sizeof(command_in));	// set command to 0
     574:	84 e6       	ldi	r24, 0x64	; 100
     576:	ed e6       	ldi	r30, 0x6D	; 109
     578:	f3 e0       	ldi	r31, 0x03	; 3
     57a:	df 01       	movw	r26, r30
     57c:	1d 92       	st	X+, r1
     57e:	8a 95       	dec	r24
     580:	e9 f7       	brne	.-6      	; 0x57c <get_serial+0x86>
     582:	05 c0       	rjmp	.+10     	; 0x58e <get_serial+0x98>
		}
		else
		{
			data_count++;
     584:	80 91 6c 03 	lds	r24, 0x036C	; 0x80036c <data_count>
     588:	8f 5f       	subi	r24, 0xFF	; 255
     58a:	80 93 6c 03 	sts	0x036C, r24	; 0x80036c <data_count>
		}
	}	
}
     58e:	cf 91       	pop	r28
     590:	08 95       	ret

00000592 <init_io>:
		break;
		
		default:
		break;
	}	
}
     592:	24 9a       	sbi	0x04, 4	; 4
     594:	53 9a       	sbi	0x0a, 3	; 10
     596:	21 9a       	sbi	0x04, 1	; 4
     598:	55 9a       	sbi	0x0a, 5	; 10
     59a:	08 95       	ret

0000059c <init_int>:
     59c:	e1 e8       	ldi	r30, 0x81	; 129
     59e:	f0 e0       	ldi	r31, 0x00	; 0
     5a0:	80 81       	ld	r24, Z
     5a2:	88 60       	ori	r24, 0x08	; 8
     5a4:	80 83       	st	Z, r24
     5a6:	80 81       	ld	r24, Z
     5a8:	85 60       	ori	r24, 0x05	; 5
     5aa:	80 83       	st	Z, r24
     5ac:	ef e6       	ldi	r30, 0x6F	; 111
     5ae:	f0 e0       	ldi	r31, 0x00	; 0
     5b0:	80 81       	ld	r24, Z
     5b2:	82 60       	ori	r24, 0x02	; 2
     5b4:	80 83       	st	Z, r24
     5b6:	8b e9       	ldi	r24, 0x9B	; 155
     5b8:	90 e0       	ldi	r25, 0x00	; 0
     5ba:	90 93 89 00 	sts	0x0089, r25	; 0x800089 <__TEXT_REGION_LENGTH__+0x7e0089>
     5be:	80 93 88 00 	sts	0x0088, r24	; 0x800088 <__TEXT_REGION_LENGTH__+0x7e0088>
     5c2:	10 92 85 00 	sts	0x0085, r1	; 0x800085 <__TEXT_REGION_LENGTH__+0x7e0085>
     5c6:	10 92 84 00 	sts	0x0084, r1	; 0x800084 <__TEXT_REGION_LENGTH__+0x7e0084>
     5ca:	78 94       	sei
     5cc:	08 95       	ret

000005ce <init_adc>:
     5ce:	ec e7       	ldi	r30, 0x7C	; 124
     5d0:	f0 e0       	ldi	r31, 0x00	; 0
     5d2:	80 81       	ld	r24, Z
     5d4:	80 64       	ori	r24, 0x40	; 64
     5d6:	80 83       	st	Z, r24
     5d8:	ea e7       	ldi	r30, 0x7A	; 122
     5da:	f0 e0       	ldi	r31, 0x00	; 0
     5dc:	80 81       	ld	r24, Z
     5de:	87 60       	ori	r24, 0x07	; 7
     5e0:	80 83       	st	Z, r24
     5e2:	80 81       	ld	r24, Z
     5e4:	80 68       	ori	r24, 0x80	; 128
     5e6:	80 83       	st	Z, r24
     5e8:	08 95       	ret

000005ea <read_adc>:
     5ea:	ec e7       	ldi	r30, 0x7C	; 124
     5ec:	f0 e0       	ldi	r31, 0x00	; 0
     5ee:	90 81       	ld	r25, Z
     5f0:	90 7f       	andi	r25, 0xF0	; 240
     5f2:	8f 70       	andi	r24, 0x0F	; 15
     5f4:	89 2b       	or	r24, r25
     5f6:	80 83       	st	Z, r24
     5f8:	ea e7       	ldi	r30, 0x7A	; 122
     5fa:	f0 e0       	ldi	r31, 0x00	; 0
     5fc:	80 81       	ld	r24, Z
     5fe:	80 64       	ori	r24, 0x40	; 64
     600:	80 83       	st	Z, r24
     602:	80 81       	ld	r24, Z
     604:	86 fd       	sbrc	r24, 6
     606:	fd cf       	rjmp	.-6      	; 0x602 <read_adc+0x18>
     608:	80 91 78 00 	lds	r24, 0x0078	; 0x800078 <__TEXT_REGION_LENGTH__+0x7e0078>
     60c:	90 91 79 00 	lds	r25, 0x0079	; 0x800079 <__TEXT_REGION_LENGTH__+0x7e0079>
     610:	08 95       	ret

00000612 <__vector_11>:
     612:	1f 92       	push	r1
     614:	0f 92       	push	r0
     616:	0f b6       	in	r0, 0x3f	; 63
     618:	0f 92       	push	r0
     61a:	11 24       	eor	r1, r1
     61c:	2f 93       	push	r18
     61e:	3f 93       	push	r19
     620:	4f 93       	push	r20
     622:	5f 93       	push	r21
     624:	6f 93       	push	r22
     626:	7f 93       	push	r23
     628:	8f 93       	push	r24
     62a:	9f 93       	push	r25
     62c:	af 93       	push	r26
     62e:	bf 93       	push	r27
     630:	ef 93       	push	r30
     632:	ff 93       	push	r31
     634:	80 e0       	ldi	r24, 0x00	; 0
     636:	0e 94 f5 02 	call	0x5ea	; 0x5ea <read_adc>
     63a:	90 93 a4 04 	sts	0x04A4, r25	; 0x8004a4 <device+0xa>
     63e:	80 93 a3 04 	sts	0x04A3, r24	; 0x8004a3 <device+0x9>
     642:	83 e0       	ldi	r24, 0x03	; 3
     644:	0e 94 f5 02 	call	0x5ea	; 0x5ea <read_adc>
     648:	9c 01       	movw	r18, r24
     64a:	2c 55       	subi	r18, 0x5C	; 92
     64c:	31 40       	sbci	r19, 0x01	; 1
     64e:	ab ea       	ldi	r26, 0xAB	; 171
     650:	ba ea       	ldi	r27, 0xAA	; 170
     652:	0e 94 2a 09 	call	0x1254	; 0x1254 <__umulhisi3>
     656:	96 95       	lsr	r25
     658:	87 95       	ror	r24
     65a:	89 3c       	cpi	r24, 0xC9	; 201
     65c:	91 05       	cpc	r25, r1
     65e:	28 f0       	brcs	.+10     	; 0x66a <__vector_11+0x58>
     660:	10 92 9f 04 	sts	0x049F, r1	; 0x80049f <device+0x5>
     664:	10 92 9e 04 	sts	0x049E, r1	; 0x80049e <device+0x4>
     668:	0e c0       	rjmp	.+28     	; 0x686 <__vector_11+0x74>
     66a:	8a 36       	cpi	r24, 0x6A	; 106
     66c:	91 05       	cpc	r25, r1
     66e:	28 f4       	brcc	.+10     	; 0x67a <__vector_11+0x68>
     670:	90 93 9f 04 	sts	0x049F, r25	; 0x80049f <device+0x5>
     674:	80 93 9e 04 	sts	0x049E, r24	; 0x80049e <device+0x4>
     678:	06 c0       	rjmp	.+12     	; 0x686 <__vector_11+0x74>
     67a:	89 e6       	ldi	r24, 0x69	; 105
     67c:	90 e0       	ldi	r25, 0x00	; 0
     67e:	90 93 9f 04 	sts	0x049F, r25	; 0x80049f <device+0x5>
     682:	80 93 9e 04 	sts	0x049E, r24	; 0x80049e <device+0x4>
     686:	ea e9       	ldi	r30, 0x9A	; 154
     688:	f4 e0       	ldi	r31, 0x04	; 4
     68a:	21 85       	ldd	r18, Z+9	; 0x09
     68c:	32 85       	ldd	r19, Z+10	; 0x0a
     68e:	83 85       	ldd	r24, Z+11	; 0x0b
     690:	94 85       	ldd	r25, Z+12	; 0x0c
     692:	82 17       	cp	r24, r18
     694:	93 07       	cpc	r25, r19
     696:	50 f4       	brcc	.+20     	; 0x6ac <__vector_11+0x9a>
     698:	80 91 02 03 	lds	r24, 0x0302	; 0x800302 <current_ovf_counter.2525>
     69c:	90 91 03 03 	lds	r25, 0x0303	; 0x800303 <current_ovf_counter.2525+0x1>
     6a0:	01 96       	adiw	r24, 0x01	; 1
     6a2:	90 93 03 03 	sts	0x0303, r25	; 0x800303 <current_ovf_counter.2525+0x1>
     6a6:	80 93 02 03 	sts	0x0302, r24	; 0x800302 <current_ovf_counter.2525>
     6aa:	04 c0       	rjmp	.+8      	; 0x6b4 <__vector_11+0xa2>
     6ac:	10 92 03 03 	sts	0x0303, r1	; 0x800303 <current_ovf_counter.2525+0x1>
     6b0:	10 92 02 03 	sts	0x0302, r1	; 0x800302 <current_ovf_counter.2525>
     6b4:	80 91 02 03 	lds	r24, 0x0302	; 0x800302 <current_ovf_counter.2525>
     6b8:	90 91 03 03 	lds	r25, 0x0303	; 0x800303 <current_ovf_counter.2525+0x1>
     6bc:	86 39       	cpi	r24, 0x96	; 150
     6be:	91 05       	cpc	r25, r1
     6c0:	59 f4       	brne	.+22     	; 0x6d8 <__vector_11+0xc6>
     6c2:	ea e9       	ldi	r30, 0x9A	; 154
     6c4:	f4 e0       	ldi	r31, 0x04	; 4
     6c6:	15 86       	std	Z+13, r1	; 0x0d
     6c8:	84 e0       	ldi	r24, 0x04	; 4
     6ca:	87 87       	std	Z+15, r24	; 0x0f
     6cc:	12 82       	std	Z+2, r1	; 0x02
     6ce:	16 86       	std	Z+14, r1	; 0x0e
     6d0:	10 92 03 03 	sts	0x0303, r1	; 0x800303 <current_ovf_counter.2525+0x1>
     6d4:	10 92 02 03 	sts	0x0302, r1	; 0x800302 <current_ovf_counter.2525>
     6d8:	81 e0       	ldi	r24, 0x01	; 1
     6da:	80 93 06 03 	sts	0x0306, r24	; 0x800306 <check_movement>
     6de:	ff 91       	pop	r31
     6e0:	ef 91       	pop	r30
     6e2:	bf 91       	pop	r27
     6e4:	af 91       	pop	r26
     6e6:	9f 91       	pop	r25
     6e8:	8f 91       	pop	r24
     6ea:	7f 91       	pop	r23
     6ec:	6f 91       	pop	r22
     6ee:	5f 91       	pop	r21
     6f0:	4f 91       	pop	r20
     6f2:	3f 91       	pop	r19
     6f4:	2f 91       	pop	r18
     6f6:	0f 90       	pop	r0
     6f8:	0f be       	out	0x3f, r0	; 63
     6fa:	0f 90       	pop	r0
     6fc:	1f 90       	pop	r1
     6fe:	18 95       	reti

00000700 <print_HMI>:

void print_HMI(void)
{
     700:	cf 93       	push	r28
     702:	df 93       	push	r29
	uart_puts("n0.val=");
     704:	8d e6       	ldi	r24, 0x6D	; 109
     706:	92 e0       	ldi	r25, 0x02	; 2
     708:	0e 94 98 05 	call	0xb30	; 0xb30 <uart_puts>
	print_int(device.current_angle, FALSE);
     70c:	ca e9       	ldi	r28, 0x9A	; 154
     70e:	d4 e0       	ldi	r29, 0x04	; 4
     710:	60 e0       	ldi	r22, 0x00	; 0
     712:	8c 81       	ldd	r24, Y+4	; 0x04
     714:	9d 81       	ldd	r25, Y+5	; 0x05
     716:	0e 94 0f 01 	call	0x21e	; 0x21e <print_int>
	uart_puts("ÿÿÿ");
     71a:	85 e7       	ldi	r24, 0x75	; 117
     71c:	92 e0       	ldi	r25, 0x02	; 2
     71e:	0e 94 98 05 	call	0xb30	; 0xb30 <uart_puts>
	
	uart_puts("n1.val=");
     722:	89 e7       	ldi	r24, 0x79	; 121
     724:	92 e0       	ldi	r25, 0x02	; 2
     726:	0e 94 98 05 	call	0xb30	; 0xb30 <uart_puts>
	print_int(device.setpoint_angle, FALSE);
     72a:	8a 81       	ldd	r24, Y+2	; 0x02
     72c:	60 e0       	ldi	r22, 0x00	; 0
     72e:	90 e0       	ldi	r25, 0x00	; 0
     730:	0e 94 0f 01 	call	0x21e	; 0x21e <print_int>
	uart_puts("ÿÿÿ");
     734:	85 e7       	ldi	r24, 0x75	; 117
     736:	92 e0       	ldi	r25, 0x02	; 2
     738:	0e 94 98 05 	call	0xb30	; 0xb30 <uart_puts>
	
	switch (device.status) 
     73c:	8f 85       	ldd	r24, Y+15	; 0x0f
     73e:	82 30       	cpi	r24, 0x02	; 2
     740:	e9 f0       	breq	.+58     	; 0x77c <print_HMI+0x7c>
     742:	28 f4       	brcc	.+10     	; 0x74e <print_HMI+0x4e>
     744:	88 23       	and	r24, r24
     746:	59 f1       	breq	.+86     	; 0x79e <print_HMI+0x9e>
     748:	81 30       	cpi	r24, 0x01	; 1
     74a:	39 f0       	breq	.+14     	; 0x75a <print_HMI+0x5a>
     74c:	5a c0       	rjmp	.+180    	; 0x802 <print_HMI+0x102>
     74e:	83 30       	cpi	r24, 0x03	; 3
     750:	b9 f1       	breq	.+110    	; 0x7c0 <print_HMI+0xc0>
     752:	84 30       	cpi	r24, 0x04	; 4
     754:	09 f4       	brne	.+2      	; 0x758 <print_HMI+0x58>
     756:	45 c0       	rjmp	.+138    	; 0x7e2 <print_HMI+0xe2>
     758:	54 c0       	rjmp	.+168    	; 0x802 <print_HMI+0x102>
	{
		case WORKING_UP:
			uart_puts("t3.txt=\"TREK..\"");
     75a:	81 e8       	ldi	r24, 0x81	; 129
     75c:	92 e0       	ldi	r25, 0x02	; 2
     75e:	0e 94 98 05 	call	0xb30	; 0xb30 <uart_puts>
			uart_puts("ÿÿÿ");			
     762:	85 e7       	ldi	r24, 0x75	; 117
     764:	92 e0       	ldi	r25, 0x02	; 2
     766:	0e 94 98 05 	call	0xb30	; 0xb30 <uart_puts>
			uart_puts("t3.picc=0");	// Blue
     76a:	81 e9       	ldi	r24, 0x91	; 145
     76c:	92 e0       	ldi	r25, 0x02	; 2
     76e:	0e 94 98 05 	call	0xb30	; 0xb30 <uart_puts>
			uart_puts("ÿÿÿ");
     772:	85 e7       	ldi	r24, 0x75	; 117
     774:	92 e0       	ldi	r25, 0x02	; 2
     776:	0e 94 98 05 	call	0xb30	; 0xb30 <uart_puts>
		break;
     77a:	43 c0       	rjmp	.+134    	; 0x802 <print_HMI+0x102>
		
		case WORKING_DOWN:
			uart_puts("t3.txt=\"ONTSPAN..\"");
     77c:	8b e9       	ldi	r24, 0x9B	; 155
     77e:	92 e0       	ldi	r25, 0x02	; 2
     780:	0e 94 98 05 	call	0xb30	; 0xb30 <uart_puts>
			uart_puts("ÿÿÿ");
     784:	85 e7       	ldi	r24, 0x75	; 117
     786:	92 e0       	ldi	r25, 0x02	; 2
     788:	0e 94 98 05 	call	0xb30	; 0xb30 <uart_puts>
			uart_puts("t3.picc=0");	// Blue
     78c:	81 e9       	ldi	r24, 0x91	; 145
     78e:	92 e0       	ldi	r25, 0x02	; 2
     790:	0e 94 98 05 	call	0xb30	; 0xb30 <uart_puts>
			uart_puts("ÿÿÿ");
     794:	85 e7       	ldi	r24, 0x75	; 117
     796:	92 e0       	ldi	r25, 0x02	; 2
     798:	0e 94 98 05 	call	0xb30	; 0xb30 <uart_puts>
		break;
     79c:	32 c0       	rjmp	.+100    	; 0x802 <print_HMI+0x102>
		
		case DONE:
			uart_puts("t3.txt=\"KLAAR\"");
     79e:	8e ea       	ldi	r24, 0xAE	; 174
     7a0:	92 e0       	ldi	r25, 0x02	; 2
     7a2:	0e 94 98 05 	call	0xb30	; 0xb30 <uart_puts>
			uart_puts("ÿÿÿ");
     7a6:	85 e7       	ldi	r24, 0x75	; 117
     7a8:	92 e0       	ldi	r25, 0x02	; 2
     7aa:	0e 94 98 05 	call	0xb30	; 0xb30 <uart_puts>
			uart_puts("t3.picc=1");	// Green
     7ae:	8d eb       	ldi	r24, 0xBD	; 189
     7b0:	92 e0       	ldi	r25, 0x02	; 2
     7b2:	0e 94 98 05 	call	0xb30	; 0xb30 <uart_puts>
			uart_puts("ÿÿÿ");
     7b6:	85 e7       	ldi	r24, 0x75	; 117
     7b8:	92 e0       	ldi	r25, 0x02	; 2
     7ba:	0e 94 98 05 	call	0xb30	; 0xb30 <uart_puts>
		break;
     7be:	21 c0       	rjmp	.+66     	; 0x802 <print_HMI+0x102>
		
		case STOP:
			uart_puts("t3.txt=\"STOP, RESET\"");
     7c0:	87 ec       	ldi	r24, 0xC7	; 199
     7c2:	92 e0       	ldi	r25, 0x02	; 2
     7c4:	0e 94 98 05 	call	0xb30	; 0xb30 <uart_puts>
			uart_puts("ÿÿÿ");	
     7c8:	85 e7       	ldi	r24, 0x75	; 117
     7ca:	92 e0       	ldi	r25, 0x02	; 2
     7cc:	0e 94 98 05 	call	0xb30	; 0xb30 <uart_puts>
			uart_puts("t3.picc=2");	// Red
     7d0:	8c ed       	ldi	r24, 0xDC	; 220
     7d2:	92 e0       	ldi	r25, 0x02	; 2
     7d4:	0e 94 98 05 	call	0xb30	; 0xb30 <uart_puts>
			uart_puts("ÿÿÿ");
     7d8:	85 e7       	ldi	r24, 0x75	; 117
     7da:	92 e0       	ldi	r25, 0x02	; 2
     7dc:	0e 94 98 05 	call	0xb30	; 0xb30 <uart_puts>
		break;
     7e0:	10 c0       	rjmp	.+32     	; 0x802 <print_HMI+0x102>
		
		case CURR_OVF:
			uart_puts("t3.txt=\"STOP, KRACHT\"");
     7e2:	86 ee       	ldi	r24, 0xE6	; 230
     7e4:	92 e0       	ldi	r25, 0x02	; 2
     7e6:	0e 94 98 05 	call	0xb30	; 0xb30 <uart_puts>
			uart_puts("ÿÿÿ");
     7ea:	85 e7       	ldi	r24, 0x75	; 117
     7ec:	92 e0       	ldi	r25, 0x02	; 2
     7ee:	0e 94 98 05 	call	0xb30	; 0xb30 <uart_puts>
			uart_puts("t3.picc=2");	// Red
     7f2:	8c ed       	ldi	r24, 0xDC	; 220
     7f4:	92 e0       	ldi	r25, 0x02	; 2
     7f6:	0e 94 98 05 	call	0xb30	; 0xb30 <uart_puts>
			uart_puts("ÿÿÿ");
     7fa:	85 e7       	ldi	r24, 0x75	; 117
     7fc:	92 e0       	ldi	r25, 0x02	; 2
     7fe:	0e 94 98 05 	call	0xb30	; 0xb30 <uart_puts>
		
	//uart_puts("n2.val=");
	//print_int(device.current, FALSE);
	//uart_puts("ÿÿÿ");	
	//g0.txt="Hello"ÿÿÿ
}
     802:	df 91       	pop	r29
     804:	cf 91       	pop	r28
     806:	08 95       	ret

00000808 <set_motor_dir>:

void set_motor_dir(uint8_t dir)
{
	if (dir == FORWARD)
     808:	81 11       	cpse	r24, r1
     80a:	03 c0       	rjmp	.+6      	; 0x812 <set_motor_dir+0xa>
	{
		DIR_A_ON;
     80c:	90 e1       	ldi	r25, 0x10	; 16
     80e:	95 b9       	out	0x05, r25	; 5
     810:	03 c0       	rjmp	.+6      	; 0x818 <set_motor_dir+0x10>
	}
	else if (dir == BACKWARD)
     812:	81 30       	cpi	r24, 0x01	; 1
     814:	09 f4       	brne	.+2      	; 0x818 <set_motor_dir+0x10>
	{
		DIR_A_OFF;
     816:	2c 98       	cbi	0x05, 4	; 5
	}	
	device.direction = dir;
     818:	80 93 9a 04 	sts	0x049A, r24	; 0x80049a <device>
     81c:	08 95       	ret

0000081e <set_motor_speed>:

void set_motor_speed(uint8_t speed)
{
	if (speed>=0 && speed<=255)
	{
		if (speed==255)
     81e:	8f 3f       	cpi	r24, 0xFF	; 255
     820:	19 f4       	brne	.+6      	; 0x828 <set_motor_speed+0xa>
		{
			PWM_A_ON;
     822:	88 e0       	ldi	r24, 0x08	; 8
     824:	8b b9       	out	0x0b, r24	; 11
     826:	08 95       	ret
		}
		else if (speed==0)
     828:	81 11       	cpse	r24, r1
     82a:	02 c0       	rjmp	.+4      	; 0x830 <set_motor_speed+0x12>
		{
			PWM_A_OFF;
     82c:	5b 98       	cbi	0x0b, 3	; 11
     82e:	08 95       	ret
		}
		else
		{
			OCR2B = speed;	// set pwm duty cycle
     830:	80 93 b4 00 	sts	0x00B4, r24	; 0x8000b4 <__TEXT_REGION_LENGTH__+0x7e00b4>
			device.speed = speed;
     834:	80 93 9b 04 	sts	0x049B, r24	; 0x80049b <device+0x1>
     838:	08 95       	ret

0000083a <check_auto_movement>:

void check_auto_movement(void)
{
	static uint8_t move_up = FALSE;	// begin to move to 0
	
	if (device.multiply_movement>0)
     83a:	80 91 a8 04 	lds	r24, 0x04A8	; 0x8004a8 <device+0xe>
     83e:	88 23       	and	r24, r24
     840:	e1 f0       	breq	.+56     	; 0x87a <check_auto_movement+0x40>
	{
		if (device.status == DONE)
     842:	90 91 a9 04 	lds	r25, 0x04A9	; 0x8004a9 <device+0xf>
     846:	91 11       	cpse	r25, r1
     848:	18 c0       	rjmp	.+48     	; 0x87a <check_auto_movement+0x40>
		{
			device.min_act_on_error=MIN_ACT_ON_ERROR_DEFAULT;
     84a:	93 e0       	ldi	r25, 0x03	; 3
     84c:	90 93 a0 04 	sts	0x04A0, r25	; 0x8004a0 <device+0x6>
			
			if (move_up)
     850:	90 91 fc 02 	lds	r25, 0x02FC	; 0x8002fc <__data_end>
     854:	99 23       	and	r25, r25
     856:	49 f0       	breq	.+18     	; 0x86a <check_auto_movement+0x30>
			{
				device.setpoint_angle = device.setpoint_angle_previous;
     858:	ea e9       	ldi	r30, 0x9A	; 154
     85a:	f4 e0       	ldi	r31, 0x04	; 4
     85c:	93 81       	ldd	r25, Z+3	; 0x03
     85e:	92 83       	std	Z+2, r25	; 0x02
				move_up = FALSE;
     860:	10 92 fc 02 	sts	0x02FC, r1	; 0x8002fc <__data_end>
				//uart_puts("Set to up:");
				//print_int(device.multiply_movement, TRUE);
				device.multiply_movement--;
     864:	81 50       	subi	r24, 0x01	; 1
     866:	86 87       	std	Z+14, r24	; 0x0e
     868:	08 95       	ret
			}
			else
			{
				//device.setpoint_angle = 0;
				device.setpoint_angle = (device.setpoint_angle_previous-15);
     86a:	ea e9       	ldi	r30, 0x9A	; 154
     86c:	f4 e0       	ldi	r31, 0x04	; 4
     86e:	83 81       	ldd	r24, Z+3	; 0x03
     870:	8f 50       	subi	r24, 0x0F	; 15
     872:	82 83       	std	Z+2, r24	; 0x02
				move_up = TRUE;
     874:	81 e0       	ldi	r24, 0x01	; 1
     876:	80 93 fc 02 	sts	0x02FC, r24	; 0x8002fc <__data_end>
     87a:	08 95       	ret

0000087c <p_loop>:
		}
	}
}

void p_loop(void)
{
     87c:	cf 93       	push	r28
     87e:	df 93       	push	r29
	uint16_t speed = 0;
	static uint16_t error_old = 0;
	static uint16_t timer = 0;
	static uint8_t move_kick = 0;	// to start the movement downwards

	if (device.movementEnabled == TRUE)
     880:	80 91 a7 04 	lds	r24, 0x04A7	; 0x8004a7 <device+0xd>
     884:	81 30       	cpi	r24, 0x01	; 1
     886:	09 f0       	breq	.+2      	; 0x88a <p_loop+0xe>
     888:	76 c0       	rjmp	.+236    	; 0x976 <__stack+0x77>
	{
		if ((device.current_angle + device.min_act_on_error) <= device.setpoint_angle)	// setpoint is further, pull
     88a:	ea e9       	ldi	r30, 0x9A	; 154
     88c:	f4 e0       	ldi	r31, 0x04	; 4
     88e:	44 81       	ldd	r20, Z+4	; 0x04
     890:	55 81       	ldd	r21, Z+5	; 0x05
     892:	26 81       	ldd	r18, Z+6	; 0x06
     894:	30 e0       	ldi	r19, 0x00	; 0
     896:	82 81       	ldd	r24, Z+2	; 0x02
     898:	90 e0       	ldi	r25, 0x00	; 0
     89a:	ba 01       	movw	r22, r20
     89c:	62 0f       	add	r22, r18
     89e:	73 1f       	adc	r23, r19
     8a0:	86 17       	cp	r24, r22
     8a2:	97 07       	cpc	r25, r23
     8a4:	68 f0       	brcs	.+26     	; 0x8c0 <p_loop+0x44>
		{
			device.error = (device.setpoint_angle - device.current_angle);	// Calc error
     8a6:	ef 01       	movw	r28, r30
     8a8:	84 1b       	sub	r24, r20
     8aa:	95 0b       	sbc	r25, r21
     8ac:	90 87       	std	Z+8, r25	; 0x08
     8ae:	87 83       	std	Z+7, r24	; 0x07
			set_motor_dir(FORWARD);
     8b0:	80 e0       	ldi	r24, 0x00	; 0
     8b2:	0e 94 04 04 	call	0x808	; 0x808 <set_motor_dir>
{
	if (speed>=0 && speed<=255)
	{
		if (speed==255)
		{
			PWM_A_ON;
     8b6:	88 e0       	ldi	r24, 0x08	; 8
     8b8:	8b b9       	out	0x0b, r24	; 11
			set_motor_dir(FORWARD);
			speed = (P_GAIN * device.error);								// calculate output pwm value
			speed = (speed > 255) ? 255 : speed;							// limit output
			//set_motor_speed(speed);	// do output
			set_motor_speed(255);	// do output
			device.status = WORKING_UP;
     8ba:	81 e0       	ldi	r24, 0x01	; 1
     8bc:	8f 87       	std	Y+15, r24	; 0x0f
     8be:	58 c0       	rjmp	.+176    	; 0x970 <__stack+0x71>
		}
		else if ((device.current_angle > device.min_act_on_error) && ((device.current_angle - device.min_act_on_error) >= device.setpoint_angle))  // past the setpoint, release
     8c0:	24 17       	cp	r18, r20
     8c2:	35 07       	cpc	r19, r21
     8c4:	08 f0       	brcs	.+2      	; 0x8c8 <p_loop+0x4c>
     8c6:	4c c0       	rjmp	.+152    	; 0x960 <__stack+0x61>
     8c8:	ba 01       	movw	r22, r20
     8ca:	62 1b       	sub	r22, r18
     8cc:	73 0b       	sbc	r23, r19
     8ce:	68 17       	cp	r22, r24
     8d0:	79 07       	cpc	r23, r25
     8d2:	08 f4       	brcc	.+2      	; 0x8d6 <p_loop+0x5a>
     8d4:	45 c0       	rjmp	.+138    	; 0x960 <__stack+0x61>
		{
			device.error = (device.current_angle - device.setpoint_angle); // Calc error
     8d6:	48 1b       	sub	r20, r24
     8d8:	59 0b       	sbc	r21, r25
     8da:	50 93 a2 04 	sts	0x04A2, r21	; 0x8004a2 <device+0x8>
     8de:	40 93 a1 04 	sts	0x04A1, r20	; 0x8004a1 <device+0x7>
			set_motor_dir(BACKWARD);
     8e2:	81 e0       	ldi	r24, 0x01	; 1
     8e4:	0e 94 04 04 	call	0x808	; 0x808 <set_motor_dir>

			if (timer == (FUNCTION_TIMER_MS/INTERRUPT_MS))
     8e8:	80 91 00 03 	lds	r24, 0x0300	; 0x800300 <timer.2576>
     8ec:	90 91 01 03 	lds	r25, 0x0301	; 0x800301 <timer.2576+0x1>
     8f0:	82 30       	cpi	r24, 0x02	; 2
     8f2:	91 05       	cpc	r25, r1
     8f4:	61 f5       	brne	.+88     	; 0x94e <__stack+0x4f>
			{
				if (move_kick<=1)
     8f6:	80 91 ff 02 	lds	r24, 0x02FF	; 0x8002ff <move_kick.2577>
     8fa:	82 30       	cpi	r24, 0x02	; 2
     8fc:	40 f4       	brcc	.+16     	; 0x90e <__stack+0xf>
{
	if (speed>=0 && speed<=255)
	{
		if (speed==255)
		{
			PWM_A_ON;
     8fe:	88 e0       	ldi	r24, 0x08	; 8
     900:	8b b9       	out	0x0b, r24	; 11
			if (timer == (FUNCTION_TIMER_MS/INTERRUPT_MS))
			{
				if (move_kick<=1)
				{
					set_motor_speed(255);	// start with a bit of movevent
					move_kick++;
     902:	80 91 ff 02 	lds	r24, 0x02FF	; 0x8002ff <move_kick.2577>
     906:	8f 5f       	subi	r24, 0xFF	; 255
     908:	80 93 ff 02 	sts	0x02FF, r24	; 0x8002ff <move_kick.2577>
     90c:	13 c0       	rjmp	.+38     	; 0x934 <__stack+0x35>
				}
				else
				{
					LED_TOGGLE;	// every 200ms?
     90e:	9b b1       	in	r25, 0x0b	; 11
     910:	80 e2       	ldi	r24, 0x20	; 32
     912:	89 27       	eor	r24, r25
     914:	8b b9       	out	0x0b, r24	; 11
					if (device.error < error_old)	// if moved a bit
     916:	20 91 a1 04 	lds	r18, 0x04A1	; 0x8004a1 <device+0x7>
     91a:	30 91 a2 04 	lds	r19, 0x04A2	; 0x8004a2 <device+0x8>
     91e:	80 91 fd 02 	lds	r24, 0x02FD	; 0x8002fd <error_old.2575>
     922:	90 91 fe 02 	lds	r25, 0x02FE	; 0x8002fe <error_old.2575+0x1>
     926:	28 17       	cp	r18, r24
     928:	39 07       	cpc	r19, r25
     92a:	18 f4       	brcc	.+6      	; 0x932 <__stack+0x33>
{
	if (speed>=0 && speed<=255)
	{
		if (speed==255)
		{
			PWM_A_ON;
     92c:	88 e0       	ldi	r24, 0x08	; 8
     92e:	8b b9       	out	0x0b, r24	; 11
     930:	01 c0       	rjmp	.+2      	; 0x934 <__stack+0x35>
		}
		else if (speed==0)
		{
			PWM_A_OFF;
     932:	5b 98       	cbi	0x0b, 3	; 11
					{
						set_motor_speed(0);	// wait for the user to release a bit
					}
				}

				error_old = device.error;
     934:	80 91 a1 04 	lds	r24, 0x04A1	; 0x8004a1 <device+0x7>
     938:	90 91 a2 04 	lds	r25, 0x04A2	; 0x8004a2 <device+0x8>
     93c:	90 93 fe 02 	sts	0x02FE, r25	; 0x8002fe <error_old.2575+0x1>
     940:	80 93 fd 02 	sts	0x02FD, r24	; 0x8002fd <error_old.2575>
				timer = 0;
     944:	10 92 01 03 	sts	0x0301, r1	; 0x800301 <timer.2576+0x1>
     948:	10 92 00 03 	sts	0x0300, r1	; 0x800300 <timer.2576>
     94c:	05 c0       	rjmp	.+10     	; 0x958 <__stack+0x59>
			}
			else
			{
				timer++;
     94e:	01 96       	adiw	r24, 0x01	; 1
     950:	90 93 01 03 	sts	0x0301, r25	; 0x800301 <timer.2576+0x1>
     954:	80 93 00 03 	sts	0x0300, r24	; 0x800300 <timer.2576>
			}
			device.status = WORKING_DOWN;
     958:	82 e0       	ldi	r24, 0x02	; 2
     95a:	80 93 a9 04 	sts	0x04A9, r24	; 0x8004a9 <device+0xf>
     95e:	08 c0       	rjmp	.+16     	; 0x970 <__stack+0x71>
		{
			PWM_A_ON;
		}
		else if (speed==0)
		{
			PWM_A_OFF;
     960:	5b 98       	cbi	0x0b, 3	; 11
			device.status = WORKING_DOWN;
		}
		else
		{
			set_motor_speed(0);	// at position
			device.min_act_on_error = MIN_ACT_ON_ERROR_EXTENDED;
     962:	ea e9       	ldi	r30, 0x9A	; 154
     964:	f4 e0       	ldi	r31, 0x04	; 4
     966:	88 e0       	ldi	r24, 0x08	; 8
     968:	86 83       	std	Z+6, r24	; 0x06
			move_kick=0;
     96a:	10 92 ff 02 	sts	0x02FF, r1	; 0x8002ff <move_kick.2577>
			device.status = DONE;
     96e:	17 86       	std	Z+15, r1	; 0x0f
		}
		check_auto_movement();	// Check if it has to do auto movement
     970:	0e 94 1d 04 	call	0x83a	; 0x83a <check_auto_movement>
     974:	01 c0       	rjmp	.+2      	; 0x978 <__stack+0x79>
		{
			PWM_A_ON;
		}
		else if (speed==0)
		{
			PWM_A_OFF;
     976:	5b 98       	cbi	0x0b, 3	; 11
	}
	else
	{
		set_motor_speed(0);	
	}	
}
     978:	df 91       	pop	r29
     97a:	cf 91       	pop	r28
     97c:	08 95       	ret

0000097e <main>:
	check_movement = TRUE;
}

int main(void)
{
	init_io();			/* Init IO*/
     97e:	0e 94 c9 02 	call	0x592	; 0x592 <init_io>
	init_int();			/* Init int for resfresh display every x ms	*/
     982:	0e 94 ce 02 	call	0x59c	; 0x59c <init_int>
	init_adc();			/* Init ADC */	
     986:	0e 94 e7 02 	call	0x5ce	; 0x5ce <init_adc>
	
	uart_init( UART_BAUD_SELECT(UART_BAUD_RATE,F_CPU) );	/* Init Uart */
     98a:	87 e6       	ldi	r24, 0x67	; 103
     98c:	90 e0       	ldi	r25, 0x00	; 0
     98e:	0e 94 51 05 	call	0xaa2	; 0xaa2 <uart_init>
	sei();						/* Enable global interrupts for uart*/
     992:	78 94       	sei
	//uart_puts("\n\rInit Uart OK\n");
	//uart_puts("ÿÿÿrestÿÿÿ");	// reset HMI

	// Start values
	device.current_limit = DEFAULT_CURRENT_LIMIT;	// set current limit
     994:	ea e9       	ldi	r30, 0x9A	; 154
     996:	f4 e0       	ldi	r31, 0x04	; 4
     998:	82 e8       	ldi	r24, 0x82	; 130
     99a:	90 e0       	ldi	r25, 0x00	; 0
     99c:	94 87       	std	Z+12, r25	; 0x0c
     99e:	83 87       	std	Z+11, r24	; 0x0b
	device.movementEnabled = FALSE;
     9a0:	15 86       	std	Z+13, r1	; 0x0d
	device.min_act_on_error=MIN_ACT_ON_ERROR_DEFAULT;
     9a2:	83 e0       	ldi	r24, 0x03	; 3
     9a4:	86 83       	std	Z+6, r24	; 0x06
	device.status=STOP;
     9a6:	87 87       	std	Z+15, r24	; 0x0f
	device.setpoint_angle = 0;
     9a8:	12 82       	std	Z+2, r1	; 0x02
	//uart_puts("MoveItAll hand ready!");		/* Print version number	*/
	//print_float(VERSION,1);

	while(1)
	{	
		get_serial();
     9aa:	0e 94 7b 02 	call	0x4f6	; 0x4f6 <get_serial>
		
		if (check_movement)	// triggered bij 10ms int
     9ae:	80 91 06 03 	lds	r24, 0x0306	; 0x800306 <check_movement>
     9b2:	88 23       	and	r24, r24
     9b4:	49 f0       	breq	.+18     	; 0x9c8 <main+0x4a>
		{
			if (command_ready) {process_command();}
     9b6:	80 91 35 04 	lds	r24, 0x0435	; 0x800435 <command_ready>
     9ba:	81 11       	cpse	r24, r1
     9bc:	0e 94 5d 01 	call	0x2ba	; 0x2ba <process_command>
			p_loop();	// 	do p loop stuff
     9c0:	0e 94 3e 04 	call	0x87c	; 0x87c <p_loop>
			check_movement = FALSE;
     9c4:	10 92 06 03 	sts	0x0306, r1	; 0x800306 <check_movement>
		}
		
		if (print_counter == REFRESH_LOOP_MS)
     9c8:	80 91 04 03 	lds	r24, 0x0304	; 0x800304 <print_counter>
     9cc:	90 91 05 03 	lds	r25, 0x0305	; 0x800305 <print_counter+0x1>
     9d0:	84 3f       	cpi	r24, 0xF4	; 244
     9d2:	21 e0       	ldi	r18, 0x01	; 1
     9d4:	92 07       	cpc	r25, r18
     9d6:	39 f4       	brne	.+14     	; 0x9e6 <main+0x68>
		{
			//print_values();
			print_HMI();
     9d8:	0e 94 80 03 	call	0x700	; 0x700 <print_HMI>
			print_counter = 0;
     9dc:	10 92 05 03 	sts	0x0305, r1	; 0x800305 <print_counter+0x1>
     9e0:	10 92 04 03 	sts	0x0304, r1	; 0x800304 <print_counter>
     9e4:	e2 cf       	rjmp	.-60     	; 0x9aa <main+0x2c>
		}
		else {print_counter++;}
     9e6:	01 96       	adiw	r24, 0x01	; 1
     9e8:	90 93 05 03 	sts	0x0305, r25	; 0x800305 <print_counter+0x1>
     9ec:	80 93 04 03 	sts	0x0304, r24	; 0x800304 <print_counter>
     9f0:	dc cf       	rjmp	.-72     	; 0x9aa <main+0x2c>

000009f2 <__vector_18>:
ISR (UART0_RECEIVE_INTERRUPT)	
/*************************************************************************
Function: UART Receive Complete interrupt
Purpose:  called when the UART has received a character
**************************************************************************/
{
     9f2:	1f 92       	push	r1
     9f4:	0f 92       	push	r0
     9f6:	0f b6       	in	r0, 0x3f	; 63
     9f8:	0f 92       	push	r0
     9fa:	11 24       	eor	r1, r1
     9fc:	2f 93       	push	r18
     9fe:	8f 93       	push	r24
     a00:	9f 93       	push	r25
     a02:	ef 93       	push	r30
     a04:	ff 93       	push	r31
    unsigned char usr;
    unsigned char lastRxError;
 
 
    /* read UART status register and UART data register */ 
    usr  = UART0_STATUS;
     a06:	80 91 c0 00 	lds	r24, 0x00C0	; 0x8000c0 <__TEXT_REGION_LENGTH__+0x7e00c0>
    data = UART0_DATA;
     a0a:	20 91 c6 00 	lds	r18, 0x00C6	; 0x8000c6 <__TEXT_REGION_LENGTH__+0x7e00c6>
#if defined( AT90_UART )
    lastRxError = (usr & (_BV(FE)|_BV(DOR)) );
#elif defined( ATMEGA_USART )
    lastRxError = (usr & (_BV(FE)|_BV(DOR)) );
#elif defined( ATMEGA_USART0 )
    lastRxError = (usr & (_BV(FE0)|_BV(DOR0)) );
     a0e:	88 71       	andi	r24, 0x18	; 24
#elif defined( AT90USB_USART )
    lastRxError = (usr & (_BV(FE1)|_BV(DOR1)) );
#endif
        
    /* calculate buffer index */ 
    tmphead = ( UART_RxHead + 1) & UART_RX_BUFFER_MASK;
     a10:	e0 91 09 03 	lds	r30, 0x0309	; 0x800309 <UART_RxHead>
     a14:	ef 5f       	subi	r30, 0xFF	; 255
     a16:	ef 73       	andi	r30, 0x3F	; 63
    
    if ( tmphead == UART_RxTail ) {
     a18:	90 91 08 03 	lds	r25, 0x0308	; 0x800308 <UART_RxTail>
     a1c:	e9 17       	cp	r30, r25
     a1e:	39 f0       	breq	.+14     	; 0xa2e <__vector_18+0x3c>
        /* error: receive buffer overflow */
        lastRxError = UART_BUFFER_OVERFLOW >> 8;
    }else{
        /* store new index */
        UART_RxHead = tmphead;
     a20:	e0 93 09 03 	sts	0x0309, r30	; 0x800309 <UART_RxHead>
        /* store received data in buffer */
        UART_RxBuf[tmphead] = data;
     a24:	f0 e0       	ldi	r31, 0x00	; 0
     a26:	e4 5f       	subi	r30, 0xF4	; 244
     a28:	fc 4f       	sbci	r31, 0xFC	; 252
     a2a:	20 83       	st	Z, r18
     a2c:	01 c0       	rjmp	.+2      	; 0xa30 <__vector_18+0x3e>
    /* calculate buffer index */ 
    tmphead = ( UART_RxHead + 1) & UART_RX_BUFFER_MASK;
    
    if ( tmphead == UART_RxTail ) {
        /* error: receive buffer overflow */
        lastRxError = UART_BUFFER_OVERFLOW >> 8;
     a2e:	82 e0       	ldi	r24, 0x02	; 2
        /* store new index */
        UART_RxHead = tmphead;
        /* store received data in buffer */
        UART_RxBuf[tmphead] = data;
    }
    UART_LastRxError |= lastRxError;   
     a30:	90 91 07 03 	lds	r25, 0x0307	; 0x800307 <UART_LastRxError>
     a34:	89 2b       	or	r24, r25
     a36:	80 93 07 03 	sts	0x0307, r24	; 0x800307 <UART_LastRxError>
}
     a3a:	ff 91       	pop	r31
     a3c:	ef 91       	pop	r30
     a3e:	9f 91       	pop	r25
     a40:	8f 91       	pop	r24
     a42:	2f 91       	pop	r18
     a44:	0f 90       	pop	r0
     a46:	0f be       	out	0x3f, r0	; 63
     a48:	0f 90       	pop	r0
     a4a:	1f 90       	pop	r1
     a4c:	18 95       	reti

00000a4e <__vector_19>:
ISR (UART0_TRANSMIT_INTERRUPT)
/*************************************************************************
Function: UART Data Register Empty interrupt
Purpose:  called when the UART is ready to transmit the next byte
**************************************************************************/
{
     a4e:	1f 92       	push	r1
     a50:	0f 92       	push	r0
     a52:	0f b6       	in	r0, 0x3f	; 63
     a54:	0f 92       	push	r0
     a56:	11 24       	eor	r1, r1
     a58:	8f 93       	push	r24
     a5a:	9f 93       	push	r25
     a5c:	ef 93       	push	r30
     a5e:	ff 93       	push	r31
    unsigned char tmptail;

    
    if ( UART_TxHead != UART_TxTail) {
     a60:	90 91 0b 03 	lds	r25, 0x030B	; 0x80030b <UART_TxHead>
     a64:	80 91 0a 03 	lds	r24, 0x030A	; 0x80030a <UART_TxTail>
     a68:	98 17       	cp	r25, r24
     a6a:	69 f0       	breq	.+26     	; 0xa86 <__vector_19+0x38>
        /* calculate and store new buffer index */
        tmptail = (UART_TxTail + 1) & UART_TX_BUFFER_MASK;
     a6c:	e0 91 0a 03 	lds	r30, 0x030A	; 0x80030a <UART_TxTail>
     a70:	ef 5f       	subi	r30, 0xFF	; 255
     a72:	ef 71       	andi	r30, 0x1F	; 31
        UART_TxTail = tmptail;
     a74:	e0 93 0a 03 	sts	0x030A, r30	; 0x80030a <UART_TxTail>
        /* get one byte from buffer and write it to UART */
        UART0_DATA = UART_TxBuf[tmptail];  /* start transmission */
     a78:	f0 e0       	ldi	r31, 0x00	; 0
     a7a:	e4 5b       	subi	r30, 0xB4	; 180
     a7c:	fc 4f       	sbci	r31, 0xFC	; 252
     a7e:	80 81       	ld	r24, Z
     a80:	80 93 c6 00 	sts	0x00C6, r24	; 0x8000c6 <__TEXT_REGION_LENGTH__+0x7e00c6>
     a84:	05 c0       	rjmp	.+10     	; 0xa90 <__vector_19+0x42>
    }else{
        /* tx buffer empty, disable UDRE interrupt */
        UART0_CONTROL &= ~_BV(UART0_UDRIE);
     a86:	e1 ec       	ldi	r30, 0xC1	; 193
     a88:	f0 e0       	ldi	r31, 0x00	; 0
     a8a:	80 81       	ld	r24, Z
     a8c:	8f 7d       	andi	r24, 0xDF	; 223
     a8e:	80 83       	st	Z, r24
    }
}
     a90:	ff 91       	pop	r31
     a92:	ef 91       	pop	r30
     a94:	9f 91       	pop	r25
     a96:	8f 91       	pop	r24
     a98:	0f 90       	pop	r0
     a9a:	0f be       	out	0x3f, r0	; 63
     a9c:	0f 90       	pop	r0
     a9e:	1f 90       	pop	r1
     aa0:	18 95       	reti

00000aa2 <uart_init>:
Input:    baudrate using macro UART_BAUD_SELECT()
Returns:  none
**************************************************************************/
void uart_init(unsigned int baudrate)
{
    UART_TxHead = 0;
     aa2:	10 92 0b 03 	sts	0x030B, r1	; 0x80030b <UART_TxHead>
    UART_TxTail = 0;
     aa6:	10 92 0a 03 	sts	0x030A, r1	; 0x80030a <UART_TxTail>
    UART_RxHead = 0;
     aaa:	10 92 09 03 	sts	0x0309, r1	; 0x800309 <UART_RxHead>
    UART_RxTail = 0;
     aae:	10 92 08 03 	sts	0x0308, r1	; 0x800308 <UART_RxTail>
    UCSRC = (3<<UCSZ0);
    #endif 
    
#elif defined (ATMEGA_USART0 )
    /* Set baud rate */
    if ( baudrate & 0x8000 ) 
     ab2:	99 23       	and	r25, r25
     ab4:	24 f4       	brge	.+8      	; 0xabe <uart_init+0x1c>
    {
   		UART0_STATUS = (1<<U2X0);  //Enable 2x speed 
     ab6:	22 e0       	ldi	r18, 0x02	; 2
     ab8:	20 93 c0 00 	sts	0x00C0, r18	; 0x8000c0 <__TEXT_REGION_LENGTH__+0x7e00c0>
   		baudrate &= ~0x8000;
     abc:	9f 77       	andi	r25, 0x7F	; 127
   	}
    UBRR0H = (unsigned char)(baudrate>>8);
     abe:	90 93 c5 00 	sts	0x00C5, r25	; 0x8000c5 <__TEXT_REGION_LENGTH__+0x7e00c5>
    UBRR0L = (unsigned char) baudrate;
     ac2:	80 93 c4 00 	sts	0x00C4, r24	; 0x8000c4 <__TEXT_REGION_LENGTH__+0x7e00c4>

    /* Enable USART receiver and transmitter and receive complete interrupt */
    UART0_CONTROL = _BV(RXCIE0)|(1<<RXEN0)|(1<<TXEN0);
     ac6:	88 e9       	ldi	r24, 0x98	; 152
     ac8:	80 93 c1 00 	sts	0x00C1, r24	; 0x8000c1 <__TEXT_REGION_LENGTH__+0x7e00c1>
    
    /* Set frame format: asynchronous, 8data, no parity, 1stop bit */
    #ifdef URSEL0
    UCSR0C = (1<<URSEL0)|(3<<UCSZ00);
    #else
    UCSR0C = (3<<UCSZ00);
     acc:	86 e0       	ldi	r24, 0x06	; 6
     ace:	80 93 c2 00 	sts	0x00C2, r24	; 0x8000c2 <__TEXT_REGION_LENGTH__+0x7e00c2>
     ad2:	08 95       	ret

00000ad4 <uart_getc>:
{    
    unsigned char tmptail;
    unsigned char data;


    if ( UART_RxHead == UART_RxTail ) {
     ad4:	90 91 09 03 	lds	r25, 0x0309	; 0x800309 <UART_RxHead>
     ad8:	80 91 08 03 	lds	r24, 0x0308	; 0x800308 <UART_RxTail>
     adc:	98 17       	cp	r25, r24
     ade:	81 f0       	breq	.+32     	; 0xb00 <uart_getc+0x2c>
        return UART_NO_DATA;   /* no data available */
    }
    
    /* calculate /store buffer index */
    tmptail = (UART_RxTail + 1) & UART_RX_BUFFER_MASK;
     ae0:	e0 91 08 03 	lds	r30, 0x0308	; 0x800308 <UART_RxTail>
     ae4:	ef 5f       	subi	r30, 0xFF	; 255
     ae6:	ef 73       	andi	r30, 0x3F	; 63
    UART_RxTail = tmptail; 
     ae8:	e0 93 08 03 	sts	0x0308, r30	; 0x800308 <UART_RxTail>
    
    /* get data from receive buffer */
    data = UART_RxBuf[tmptail];
     aec:	f0 e0       	ldi	r31, 0x00	; 0
     aee:	e4 5f       	subi	r30, 0xF4	; 244
     af0:	fc 4f       	sbci	r31, 0xFC	; 252
     af2:	80 81       	ld	r24, Z
    
    data = (UART_LastRxError << 8) + data;
     af4:	90 91 07 03 	lds	r25, 0x0307	; 0x800307 <UART_LastRxError>
    UART_LastRxError = 0;
     af8:	10 92 07 03 	sts	0x0307, r1	; 0x800307 <UART_LastRxError>
    return data;
     afc:	90 e0       	ldi	r25, 0x00	; 0
     afe:	08 95       	ret
    unsigned char tmptail;
    unsigned char data;


    if ( UART_RxHead == UART_RxTail ) {
        return UART_NO_DATA;   /* no data available */
     b00:	80 e0       	ldi	r24, 0x00	; 0
     b02:	91 e0       	ldi	r25, 0x01	; 1
    
    data = (UART_LastRxError << 8) + data;
    UART_LastRxError = 0;
    return data;

}/* uart_getc */
     b04:	08 95       	ret

00000b06 <uart_putc>:
void uart_putc(unsigned char data)
{
    unsigned char tmphead;

    
    tmphead  = (UART_TxHead + 1) & UART_TX_BUFFER_MASK;
     b06:	20 91 0b 03 	lds	r18, 0x030B	; 0x80030b <UART_TxHead>
     b0a:	2f 5f       	subi	r18, 0xFF	; 255
     b0c:	2f 71       	andi	r18, 0x1F	; 31
    
    while ( tmphead == UART_TxTail ){
     b0e:	90 91 0a 03 	lds	r25, 0x030A	; 0x80030a <UART_TxTail>
     b12:	29 17       	cp	r18, r25
     b14:	e1 f3       	breq	.-8      	; 0xb0e <uart_putc+0x8>
        ;/* wait for free space in buffer */
    }
    
    UART_TxBuf[tmphead] = data;
     b16:	e2 2f       	mov	r30, r18
     b18:	f0 e0       	ldi	r31, 0x00	; 0
     b1a:	e4 5b       	subi	r30, 0xB4	; 180
     b1c:	fc 4f       	sbci	r31, 0xFC	; 252
     b1e:	80 83       	st	Z, r24
    UART_TxHead = tmphead;
     b20:	20 93 0b 03 	sts	0x030B, r18	; 0x80030b <UART_TxHead>

    /* enable UDRE interrupt */
    UART0_CONTROL    |= _BV(UART0_UDRIE);
     b24:	e1 ec       	ldi	r30, 0xC1	; 193
     b26:	f0 e0       	ldi	r31, 0x00	; 0
     b28:	80 81       	ld	r24, Z
     b2a:	80 62       	ori	r24, 0x20	; 32
     b2c:	80 83       	st	Z, r24
     b2e:	08 95       	ret

00000b30 <uart_puts>:
Purpose:  transmit string to UART
Input:    string to be transmitted
Returns:  none          
**************************************************************************/
void uart_puts(const char *s )
{
     b30:	cf 93       	push	r28
     b32:	df 93       	push	r29
     b34:	ec 01       	movw	r28, r24
    while (*s) 
     b36:	88 81       	ld	r24, Y
     b38:	88 23       	and	r24, r24
     b3a:	31 f0       	breq	.+12     	; 0xb48 <uart_puts+0x18>
     b3c:	21 96       	adiw	r28, 0x01	; 1
      uart_putc(*s++);
     b3e:	0e 94 83 05 	call	0xb06	; 0xb06 <uart_putc>
Input:    string to be transmitted
Returns:  none          
**************************************************************************/
void uart_puts(const char *s )
{
    while (*s) 
     b42:	89 91       	ld	r24, Y+
     b44:	81 11       	cpse	r24, r1
     b46:	fb cf       	rjmp	.-10     	; 0xb3e <uart_puts+0xe>
      uart_putc(*s++);

}/* uart_puts */
     b48:	df 91       	pop	r29
     b4a:	cf 91       	pop	r28
     b4c:	08 95       	ret

00000b4e <vfprintf>:
     b4e:	a0 e1       	ldi	r26, 0x10	; 16
     b50:	b0 e0       	ldi	r27, 0x00	; 0
     b52:	ed ea       	ldi	r30, 0xAD	; 173
     b54:	f5 e0       	ldi	r31, 0x05	; 5
     b56:	0c 94 39 09 	jmp	0x1272	; 0x1272 <__prologue_saves__>
     b5a:	7c 01       	movw	r14, r24
     b5c:	1b 01       	movw	r2, r22
     b5e:	6a 01       	movw	r12, r20
     b60:	fc 01       	movw	r30, r24
     b62:	17 82       	std	Z+7, r1	; 0x07
     b64:	16 82       	std	Z+6, r1	; 0x06
     b66:	83 81       	ldd	r24, Z+3	; 0x03
     b68:	81 ff       	sbrs	r24, 1
     b6a:	44 c3       	rjmp	.+1672   	; 0x11f4 <vfprintf+0x6a6>
     b6c:	9e 01       	movw	r18, r28
     b6e:	2f 5f       	subi	r18, 0xFF	; 255
     b70:	3f 4f       	sbci	r19, 0xFF	; 255
     b72:	39 01       	movw	r6, r18
     b74:	f7 01       	movw	r30, r14
     b76:	93 81       	ldd	r25, Z+3	; 0x03
     b78:	f1 01       	movw	r30, r2
     b7a:	93 fd       	sbrc	r25, 3
     b7c:	85 91       	lpm	r24, Z+
     b7e:	93 ff       	sbrs	r25, 3
     b80:	81 91       	ld	r24, Z+
     b82:	1f 01       	movw	r2, r30
     b84:	88 23       	and	r24, r24
     b86:	09 f4       	brne	.+2      	; 0xb8a <vfprintf+0x3c>
     b88:	31 c3       	rjmp	.+1634   	; 0x11ec <vfprintf+0x69e>
     b8a:	85 32       	cpi	r24, 0x25	; 37
     b8c:	39 f4       	brne	.+14     	; 0xb9c <vfprintf+0x4e>
     b8e:	93 fd       	sbrc	r25, 3
     b90:	85 91       	lpm	r24, Z+
     b92:	93 ff       	sbrs	r25, 3
     b94:	81 91       	ld	r24, Z+
     b96:	1f 01       	movw	r2, r30
     b98:	85 32       	cpi	r24, 0x25	; 37
     b9a:	39 f4       	brne	.+14     	; 0xbaa <vfprintf+0x5c>
     b9c:	b7 01       	movw	r22, r14
     b9e:	90 e0       	ldi	r25, 0x00	; 0
     ba0:	0e 94 bb 0a 	call	0x1576	; 0x1576 <fputc>
     ba4:	56 01       	movw	r10, r12
     ba6:	65 01       	movw	r12, r10
     ba8:	e5 cf       	rjmp	.-54     	; 0xb74 <vfprintf+0x26>
     baa:	10 e0       	ldi	r17, 0x00	; 0
     bac:	51 2c       	mov	r5, r1
     bae:	91 2c       	mov	r9, r1
     bb0:	ff e1       	ldi	r31, 0x1F	; 31
     bb2:	f9 15       	cp	r31, r9
     bb4:	d8 f0       	brcs	.+54     	; 0xbec <vfprintf+0x9e>
     bb6:	8b 32       	cpi	r24, 0x2B	; 43
     bb8:	79 f0       	breq	.+30     	; 0xbd8 <vfprintf+0x8a>
     bba:	38 f4       	brcc	.+14     	; 0xbca <vfprintf+0x7c>
     bbc:	80 32       	cpi	r24, 0x20	; 32
     bbe:	79 f0       	breq	.+30     	; 0xbde <vfprintf+0x90>
     bc0:	83 32       	cpi	r24, 0x23	; 35
     bc2:	a1 f4       	brne	.+40     	; 0xbec <vfprintf+0x9e>
     bc4:	f9 2d       	mov	r31, r9
     bc6:	f0 61       	ori	r31, 0x10	; 16
     bc8:	2e c0       	rjmp	.+92     	; 0xc26 <vfprintf+0xd8>
     bca:	8d 32       	cpi	r24, 0x2D	; 45
     bcc:	61 f0       	breq	.+24     	; 0xbe6 <vfprintf+0x98>
     bce:	80 33       	cpi	r24, 0x30	; 48
     bd0:	69 f4       	brne	.+26     	; 0xbec <vfprintf+0x9e>
     bd2:	29 2d       	mov	r18, r9
     bd4:	21 60       	ori	r18, 0x01	; 1
     bd6:	2d c0       	rjmp	.+90     	; 0xc32 <vfprintf+0xe4>
     bd8:	39 2d       	mov	r19, r9
     bda:	32 60       	ori	r19, 0x02	; 2
     bdc:	93 2e       	mov	r9, r19
     bde:	89 2d       	mov	r24, r9
     be0:	84 60       	ori	r24, 0x04	; 4
     be2:	98 2e       	mov	r9, r24
     be4:	2a c0       	rjmp	.+84     	; 0xc3a <vfprintf+0xec>
     be6:	e9 2d       	mov	r30, r9
     be8:	e8 60       	ori	r30, 0x08	; 8
     bea:	15 c0       	rjmp	.+42     	; 0xc16 <vfprintf+0xc8>
     bec:	97 fc       	sbrc	r9, 7
     bee:	2d c0       	rjmp	.+90     	; 0xc4a <vfprintf+0xfc>
     bf0:	20 ed       	ldi	r18, 0xD0	; 208
     bf2:	28 0f       	add	r18, r24
     bf4:	2a 30       	cpi	r18, 0x0A	; 10
     bf6:	88 f4       	brcc	.+34     	; 0xc1a <vfprintf+0xcc>
     bf8:	96 fe       	sbrs	r9, 6
     bfa:	06 c0       	rjmp	.+12     	; 0xc08 <vfprintf+0xba>
     bfc:	3a e0       	ldi	r19, 0x0A	; 10
     bfe:	13 9f       	mul	r17, r19
     c00:	20 0d       	add	r18, r0
     c02:	11 24       	eor	r1, r1
     c04:	12 2f       	mov	r17, r18
     c06:	19 c0       	rjmp	.+50     	; 0xc3a <vfprintf+0xec>
     c08:	8a e0       	ldi	r24, 0x0A	; 10
     c0a:	58 9e       	mul	r5, r24
     c0c:	20 0d       	add	r18, r0
     c0e:	11 24       	eor	r1, r1
     c10:	52 2e       	mov	r5, r18
     c12:	e9 2d       	mov	r30, r9
     c14:	e0 62       	ori	r30, 0x20	; 32
     c16:	9e 2e       	mov	r9, r30
     c18:	10 c0       	rjmp	.+32     	; 0xc3a <vfprintf+0xec>
     c1a:	8e 32       	cpi	r24, 0x2E	; 46
     c1c:	31 f4       	brne	.+12     	; 0xc2a <vfprintf+0xdc>
     c1e:	96 fc       	sbrc	r9, 6
     c20:	e5 c2       	rjmp	.+1482   	; 0x11ec <vfprintf+0x69e>
     c22:	f9 2d       	mov	r31, r9
     c24:	f0 64       	ori	r31, 0x40	; 64
     c26:	9f 2e       	mov	r9, r31
     c28:	08 c0       	rjmp	.+16     	; 0xc3a <vfprintf+0xec>
     c2a:	8c 36       	cpi	r24, 0x6C	; 108
     c2c:	21 f4       	brne	.+8      	; 0xc36 <vfprintf+0xe8>
     c2e:	29 2d       	mov	r18, r9
     c30:	20 68       	ori	r18, 0x80	; 128
     c32:	92 2e       	mov	r9, r18
     c34:	02 c0       	rjmp	.+4      	; 0xc3a <vfprintf+0xec>
     c36:	88 36       	cpi	r24, 0x68	; 104
     c38:	41 f4       	brne	.+16     	; 0xc4a <vfprintf+0xfc>
     c3a:	f1 01       	movw	r30, r2
     c3c:	93 fd       	sbrc	r25, 3
     c3e:	85 91       	lpm	r24, Z+
     c40:	93 ff       	sbrs	r25, 3
     c42:	81 91       	ld	r24, Z+
     c44:	1f 01       	movw	r2, r30
     c46:	81 11       	cpse	r24, r1
     c48:	b3 cf       	rjmp	.-154    	; 0xbb0 <vfprintf+0x62>
     c4a:	9b eb       	ldi	r25, 0xBB	; 187
     c4c:	98 0f       	add	r25, r24
     c4e:	93 30       	cpi	r25, 0x03	; 3
     c50:	20 f4       	brcc	.+8      	; 0xc5a <vfprintf+0x10c>
     c52:	99 2d       	mov	r25, r9
     c54:	90 61       	ori	r25, 0x10	; 16
     c56:	80 5e       	subi	r24, 0xE0	; 224
     c58:	07 c0       	rjmp	.+14     	; 0xc68 <vfprintf+0x11a>
     c5a:	9b e9       	ldi	r25, 0x9B	; 155
     c5c:	98 0f       	add	r25, r24
     c5e:	93 30       	cpi	r25, 0x03	; 3
     c60:	08 f0       	brcs	.+2      	; 0xc64 <vfprintf+0x116>
     c62:	66 c1       	rjmp	.+716    	; 0xf30 <vfprintf+0x3e2>
     c64:	99 2d       	mov	r25, r9
     c66:	9f 7e       	andi	r25, 0xEF	; 239
     c68:	96 ff       	sbrs	r25, 6
     c6a:	16 e0       	ldi	r17, 0x06	; 6
     c6c:	9f 73       	andi	r25, 0x3F	; 63
     c6e:	99 2e       	mov	r9, r25
     c70:	85 36       	cpi	r24, 0x65	; 101
     c72:	19 f4       	brne	.+6      	; 0xc7a <vfprintf+0x12c>
     c74:	90 64       	ori	r25, 0x40	; 64
     c76:	99 2e       	mov	r9, r25
     c78:	08 c0       	rjmp	.+16     	; 0xc8a <vfprintf+0x13c>
     c7a:	86 36       	cpi	r24, 0x66	; 102
     c7c:	21 f4       	brne	.+8      	; 0xc86 <vfprintf+0x138>
     c7e:	39 2f       	mov	r19, r25
     c80:	30 68       	ori	r19, 0x80	; 128
     c82:	93 2e       	mov	r9, r19
     c84:	02 c0       	rjmp	.+4      	; 0xc8a <vfprintf+0x13c>
     c86:	11 11       	cpse	r17, r1
     c88:	11 50       	subi	r17, 0x01	; 1
     c8a:	97 fe       	sbrs	r9, 7
     c8c:	07 c0       	rjmp	.+14     	; 0xc9c <vfprintf+0x14e>
     c8e:	1c 33       	cpi	r17, 0x3C	; 60
     c90:	50 f4       	brcc	.+20     	; 0xca6 <vfprintf+0x158>
     c92:	44 24       	eor	r4, r4
     c94:	43 94       	inc	r4
     c96:	41 0e       	add	r4, r17
     c98:	27 e0       	ldi	r18, 0x07	; 7
     c9a:	0b c0       	rjmp	.+22     	; 0xcb2 <vfprintf+0x164>
     c9c:	18 30       	cpi	r17, 0x08	; 8
     c9e:	38 f0       	brcs	.+14     	; 0xcae <vfprintf+0x160>
     ca0:	27 e0       	ldi	r18, 0x07	; 7
     ca2:	17 e0       	ldi	r17, 0x07	; 7
     ca4:	05 c0       	rjmp	.+10     	; 0xcb0 <vfprintf+0x162>
     ca6:	27 e0       	ldi	r18, 0x07	; 7
     ca8:	9c e3       	ldi	r25, 0x3C	; 60
     caa:	49 2e       	mov	r4, r25
     cac:	02 c0       	rjmp	.+4      	; 0xcb2 <vfprintf+0x164>
     cae:	21 2f       	mov	r18, r17
     cb0:	41 2c       	mov	r4, r1
     cb2:	56 01       	movw	r10, r12
     cb4:	84 e0       	ldi	r24, 0x04	; 4
     cb6:	a8 0e       	add	r10, r24
     cb8:	b1 1c       	adc	r11, r1
     cba:	f6 01       	movw	r30, r12
     cbc:	60 81       	ld	r22, Z
     cbe:	71 81       	ldd	r23, Z+1	; 0x01
     cc0:	82 81       	ldd	r24, Z+2	; 0x02
     cc2:	93 81       	ldd	r25, Z+3	; 0x03
     cc4:	04 2d       	mov	r16, r4
     cc6:	a3 01       	movw	r20, r6
     cc8:	0e 94 8e 09 	call	0x131c	; 0x131c <__ftoa_engine>
     ccc:	6c 01       	movw	r12, r24
     cce:	f9 81       	ldd	r31, Y+1	; 0x01
     cd0:	fc 87       	std	Y+12, r31	; 0x0c
     cd2:	f0 ff       	sbrs	r31, 0
     cd4:	02 c0       	rjmp	.+4      	; 0xcda <vfprintf+0x18c>
     cd6:	f3 ff       	sbrs	r31, 3
     cd8:	06 c0       	rjmp	.+12     	; 0xce6 <vfprintf+0x198>
     cda:	91 fc       	sbrc	r9, 1
     cdc:	06 c0       	rjmp	.+12     	; 0xcea <vfprintf+0x19c>
     cde:	92 fe       	sbrs	r9, 2
     ce0:	06 c0       	rjmp	.+12     	; 0xcee <vfprintf+0x1a0>
     ce2:	00 e2       	ldi	r16, 0x20	; 32
     ce4:	05 c0       	rjmp	.+10     	; 0xcf0 <vfprintf+0x1a2>
     ce6:	0d e2       	ldi	r16, 0x2D	; 45
     ce8:	03 c0       	rjmp	.+6      	; 0xcf0 <vfprintf+0x1a2>
     cea:	0b e2       	ldi	r16, 0x2B	; 43
     cec:	01 c0       	rjmp	.+2      	; 0xcf0 <vfprintf+0x1a2>
     cee:	00 e0       	ldi	r16, 0x00	; 0
     cf0:	8c 85       	ldd	r24, Y+12	; 0x0c
     cf2:	8c 70       	andi	r24, 0x0C	; 12
     cf4:	19 f0       	breq	.+6      	; 0xcfc <vfprintf+0x1ae>
     cf6:	01 11       	cpse	r16, r1
     cf8:	5a c2       	rjmp	.+1204   	; 0x11ae <vfprintf+0x660>
     cfa:	9b c2       	rjmp	.+1334   	; 0x1232 <vfprintf+0x6e4>
     cfc:	97 fe       	sbrs	r9, 7
     cfe:	10 c0       	rjmp	.+32     	; 0xd20 <vfprintf+0x1d2>
     d00:	4c 0c       	add	r4, r12
     d02:	fc 85       	ldd	r31, Y+12	; 0x0c
     d04:	f4 ff       	sbrs	r31, 4
     d06:	04 c0       	rjmp	.+8      	; 0xd10 <vfprintf+0x1c2>
     d08:	8a 81       	ldd	r24, Y+2	; 0x02
     d0a:	81 33       	cpi	r24, 0x31	; 49
     d0c:	09 f4       	brne	.+2      	; 0xd10 <vfprintf+0x1c2>
     d0e:	4a 94       	dec	r4
     d10:	14 14       	cp	r1, r4
     d12:	74 f5       	brge	.+92     	; 0xd70 <vfprintf+0x222>
     d14:	28 e0       	ldi	r18, 0x08	; 8
     d16:	24 15       	cp	r18, r4
     d18:	78 f5       	brcc	.+94     	; 0xd78 <vfprintf+0x22a>
     d1a:	88 e0       	ldi	r24, 0x08	; 8
     d1c:	48 2e       	mov	r4, r24
     d1e:	2c c0       	rjmp	.+88     	; 0xd78 <vfprintf+0x22a>
     d20:	96 fc       	sbrc	r9, 6
     d22:	2a c0       	rjmp	.+84     	; 0xd78 <vfprintf+0x22a>
     d24:	81 2f       	mov	r24, r17
     d26:	90 e0       	ldi	r25, 0x00	; 0
     d28:	8c 15       	cp	r24, r12
     d2a:	9d 05       	cpc	r25, r13
     d2c:	9c f0       	brlt	.+38     	; 0xd54 <vfprintf+0x206>
     d2e:	3c ef       	ldi	r19, 0xFC	; 252
     d30:	c3 16       	cp	r12, r19
     d32:	3f ef       	ldi	r19, 0xFF	; 255
     d34:	d3 06       	cpc	r13, r19
     d36:	74 f0       	brlt	.+28     	; 0xd54 <vfprintf+0x206>
     d38:	89 2d       	mov	r24, r9
     d3a:	80 68       	ori	r24, 0x80	; 128
     d3c:	98 2e       	mov	r9, r24
     d3e:	0a c0       	rjmp	.+20     	; 0xd54 <vfprintf+0x206>
     d40:	e2 e0       	ldi	r30, 0x02	; 2
     d42:	f0 e0       	ldi	r31, 0x00	; 0
     d44:	ec 0f       	add	r30, r28
     d46:	fd 1f       	adc	r31, r29
     d48:	e1 0f       	add	r30, r17
     d4a:	f1 1d       	adc	r31, r1
     d4c:	80 81       	ld	r24, Z
     d4e:	80 33       	cpi	r24, 0x30	; 48
     d50:	19 f4       	brne	.+6      	; 0xd58 <vfprintf+0x20a>
     d52:	11 50       	subi	r17, 0x01	; 1
     d54:	11 11       	cpse	r17, r1
     d56:	f4 cf       	rjmp	.-24     	; 0xd40 <vfprintf+0x1f2>
     d58:	97 fe       	sbrs	r9, 7
     d5a:	0e c0       	rjmp	.+28     	; 0xd78 <vfprintf+0x22a>
     d5c:	44 24       	eor	r4, r4
     d5e:	43 94       	inc	r4
     d60:	41 0e       	add	r4, r17
     d62:	81 2f       	mov	r24, r17
     d64:	90 e0       	ldi	r25, 0x00	; 0
     d66:	c8 16       	cp	r12, r24
     d68:	d9 06       	cpc	r13, r25
     d6a:	2c f4       	brge	.+10     	; 0xd76 <vfprintf+0x228>
     d6c:	1c 19       	sub	r17, r12
     d6e:	04 c0       	rjmp	.+8      	; 0xd78 <vfprintf+0x22a>
     d70:	44 24       	eor	r4, r4
     d72:	43 94       	inc	r4
     d74:	01 c0       	rjmp	.+2      	; 0xd78 <vfprintf+0x22a>
     d76:	10 e0       	ldi	r17, 0x00	; 0
     d78:	97 fe       	sbrs	r9, 7
     d7a:	06 c0       	rjmp	.+12     	; 0xd88 <vfprintf+0x23a>
     d7c:	1c 14       	cp	r1, r12
     d7e:	1d 04       	cpc	r1, r13
     d80:	34 f4       	brge	.+12     	; 0xd8e <vfprintf+0x240>
     d82:	c6 01       	movw	r24, r12
     d84:	01 96       	adiw	r24, 0x01	; 1
     d86:	05 c0       	rjmp	.+10     	; 0xd92 <vfprintf+0x244>
     d88:	85 e0       	ldi	r24, 0x05	; 5
     d8a:	90 e0       	ldi	r25, 0x00	; 0
     d8c:	02 c0       	rjmp	.+4      	; 0xd92 <vfprintf+0x244>
     d8e:	81 e0       	ldi	r24, 0x01	; 1
     d90:	90 e0       	ldi	r25, 0x00	; 0
     d92:	01 11       	cpse	r16, r1
     d94:	01 96       	adiw	r24, 0x01	; 1
     d96:	11 23       	and	r17, r17
     d98:	31 f0       	breq	.+12     	; 0xda6 <vfprintf+0x258>
     d9a:	21 2f       	mov	r18, r17
     d9c:	30 e0       	ldi	r19, 0x00	; 0
     d9e:	2f 5f       	subi	r18, 0xFF	; 255
     da0:	3f 4f       	sbci	r19, 0xFF	; 255
     da2:	82 0f       	add	r24, r18
     da4:	93 1f       	adc	r25, r19
     da6:	25 2d       	mov	r18, r5
     da8:	30 e0       	ldi	r19, 0x00	; 0
     daa:	82 17       	cp	r24, r18
     dac:	93 07       	cpc	r25, r19
     dae:	14 f4       	brge	.+4      	; 0xdb4 <vfprintf+0x266>
     db0:	58 1a       	sub	r5, r24
     db2:	01 c0       	rjmp	.+2      	; 0xdb6 <vfprintf+0x268>
     db4:	51 2c       	mov	r5, r1
     db6:	89 2d       	mov	r24, r9
     db8:	89 70       	andi	r24, 0x09	; 9
     dba:	49 f4       	brne	.+18     	; 0xdce <vfprintf+0x280>
     dbc:	55 20       	and	r5, r5
     dbe:	39 f0       	breq	.+14     	; 0xdce <vfprintf+0x280>
     dc0:	b7 01       	movw	r22, r14
     dc2:	80 e2       	ldi	r24, 0x20	; 32
     dc4:	90 e0       	ldi	r25, 0x00	; 0
     dc6:	0e 94 bb 0a 	call	0x1576	; 0x1576 <fputc>
     dca:	5a 94       	dec	r5
     dcc:	f7 cf       	rjmp	.-18     	; 0xdbc <vfprintf+0x26e>
     dce:	00 23       	and	r16, r16
     dd0:	29 f0       	breq	.+10     	; 0xddc <vfprintf+0x28e>
     dd2:	b7 01       	movw	r22, r14
     dd4:	80 2f       	mov	r24, r16
     dd6:	90 e0       	ldi	r25, 0x00	; 0
     dd8:	0e 94 bb 0a 	call	0x1576	; 0x1576 <fputc>
     ddc:	93 fc       	sbrc	r9, 3
     dde:	09 c0       	rjmp	.+18     	; 0xdf2 <vfprintf+0x2a4>
     de0:	55 20       	and	r5, r5
     de2:	39 f0       	breq	.+14     	; 0xdf2 <vfprintf+0x2a4>
     de4:	b7 01       	movw	r22, r14
     de6:	80 e3       	ldi	r24, 0x30	; 48
     de8:	90 e0       	ldi	r25, 0x00	; 0
     dea:	0e 94 bb 0a 	call	0x1576	; 0x1576 <fputc>
     dee:	5a 94       	dec	r5
     df0:	f7 cf       	rjmp	.-18     	; 0xde0 <vfprintf+0x292>
     df2:	97 fe       	sbrs	r9, 7
     df4:	4c c0       	rjmp	.+152    	; 0xe8e <vfprintf+0x340>
     df6:	46 01       	movw	r8, r12
     df8:	d7 fe       	sbrs	r13, 7
     dfa:	02 c0       	rjmp	.+4      	; 0xe00 <vfprintf+0x2b2>
     dfc:	81 2c       	mov	r8, r1
     dfe:	91 2c       	mov	r9, r1
     e00:	c6 01       	movw	r24, r12
     e02:	88 19       	sub	r24, r8
     e04:	99 09       	sbc	r25, r9
     e06:	f3 01       	movw	r30, r6
     e08:	e8 0f       	add	r30, r24
     e0a:	f9 1f       	adc	r31, r25
     e0c:	fe 87       	std	Y+14, r31	; 0x0e
     e0e:	ed 87       	std	Y+13, r30	; 0x0d
     e10:	96 01       	movw	r18, r12
     e12:	24 19       	sub	r18, r4
     e14:	31 09       	sbc	r19, r1
     e16:	38 8b       	std	Y+16, r19	; 0x10
     e18:	2f 87       	std	Y+15, r18	; 0x0f
     e1a:	01 2f       	mov	r16, r17
     e1c:	10 e0       	ldi	r17, 0x00	; 0
     e1e:	11 95       	neg	r17
     e20:	01 95       	neg	r16
     e22:	11 09       	sbc	r17, r1
     e24:	3f ef       	ldi	r19, 0xFF	; 255
     e26:	83 16       	cp	r8, r19
     e28:	93 06       	cpc	r9, r19
     e2a:	29 f4       	brne	.+10     	; 0xe36 <vfprintf+0x2e8>
     e2c:	b7 01       	movw	r22, r14
     e2e:	8e e2       	ldi	r24, 0x2E	; 46
     e30:	90 e0       	ldi	r25, 0x00	; 0
     e32:	0e 94 bb 0a 	call	0x1576	; 0x1576 <fputc>
     e36:	c8 14       	cp	r12, r8
     e38:	d9 04       	cpc	r13, r9
     e3a:	4c f0       	brlt	.+18     	; 0xe4e <vfprintf+0x300>
     e3c:	8f 85       	ldd	r24, Y+15	; 0x0f
     e3e:	98 89       	ldd	r25, Y+16	; 0x10
     e40:	88 15       	cp	r24, r8
     e42:	99 05       	cpc	r25, r9
     e44:	24 f4       	brge	.+8      	; 0xe4e <vfprintf+0x300>
     e46:	ed 85       	ldd	r30, Y+13	; 0x0d
     e48:	fe 85       	ldd	r31, Y+14	; 0x0e
     e4a:	81 81       	ldd	r24, Z+1	; 0x01
     e4c:	01 c0       	rjmp	.+2      	; 0xe50 <vfprintf+0x302>
     e4e:	80 e3       	ldi	r24, 0x30	; 48
     e50:	f1 e0       	ldi	r31, 0x01	; 1
     e52:	8f 1a       	sub	r8, r31
     e54:	91 08       	sbc	r9, r1
     e56:	2d 85       	ldd	r18, Y+13	; 0x0d
     e58:	3e 85       	ldd	r19, Y+14	; 0x0e
     e5a:	2f 5f       	subi	r18, 0xFF	; 255
     e5c:	3f 4f       	sbci	r19, 0xFF	; 255
     e5e:	3e 87       	std	Y+14, r19	; 0x0e
     e60:	2d 87       	std	Y+13, r18	; 0x0d
     e62:	80 16       	cp	r8, r16
     e64:	91 06       	cpc	r9, r17
     e66:	2c f0       	brlt	.+10     	; 0xe72 <vfprintf+0x324>
     e68:	b7 01       	movw	r22, r14
     e6a:	90 e0       	ldi	r25, 0x00	; 0
     e6c:	0e 94 bb 0a 	call	0x1576	; 0x1576 <fputc>
     e70:	d9 cf       	rjmp	.-78     	; 0xe24 <vfprintf+0x2d6>
     e72:	c8 14       	cp	r12, r8
     e74:	d9 04       	cpc	r13, r9
     e76:	41 f4       	brne	.+16     	; 0xe88 <vfprintf+0x33a>
     e78:	9a 81       	ldd	r25, Y+2	; 0x02
     e7a:	96 33       	cpi	r25, 0x36	; 54
     e7c:	20 f4       	brcc	.+8      	; 0xe86 <vfprintf+0x338>
     e7e:	95 33       	cpi	r25, 0x35	; 53
     e80:	19 f4       	brne	.+6      	; 0xe88 <vfprintf+0x33a>
     e82:	3c 85       	ldd	r19, Y+12	; 0x0c
     e84:	34 ff       	sbrs	r19, 4
     e86:	81 e3       	ldi	r24, 0x31	; 49
     e88:	b7 01       	movw	r22, r14
     e8a:	90 e0       	ldi	r25, 0x00	; 0
     e8c:	4e c0       	rjmp	.+156    	; 0xf2a <vfprintf+0x3dc>
     e8e:	8a 81       	ldd	r24, Y+2	; 0x02
     e90:	81 33       	cpi	r24, 0x31	; 49
     e92:	19 f0       	breq	.+6      	; 0xe9a <vfprintf+0x34c>
     e94:	9c 85       	ldd	r25, Y+12	; 0x0c
     e96:	9f 7e       	andi	r25, 0xEF	; 239
     e98:	9c 87       	std	Y+12, r25	; 0x0c
     e9a:	b7 01       	movw	r22, r14
     e9c:	90 e0       	ldi	r25, 0x00	; 0
     e9e:	0e 94 bb 0a 	call	0x1576	; 0x1576 <fputc>
     ea2:	11 11       	cpse	r17, r1
     ea4:	05 c0       	rjmp	.+10     	; 0xeb0 <vfprintf+0x362>
     ea6:	94 fc       	sbrc	r9, 4
     ea8:	18 c0       	rjmp	.+48     	; 0xeda <vfprintf+0x38c>
     eaa:	85 e6       	ldi	r24, 0x65	; 101
     eac:	90 e0       	ldi	r25, 0x00	; 0
     eae:	17 c0       	rjmp	.+46     	; 0xede <vfprintf+0x390>
     eb0:	b7 01       	movw	r22, r14
     eb2:	8e e2       	ldi	r24, 0x2E	; 46
     eb4:	90 e0       	ldi	r25, 0x00	; 0
     eb6:	0e 94 bb 0a 	call	0x1576	; 0x1576 <fputc>
     eba:	1e 5f       	subi	r17, 0xFE	; 254
     ebc:	82 e0       	ldi	r24, 0x02	; 2
     ebe:	01 e0       	ldi	r16, 0x01	; 1
     ec0:	08 0f       	add	r16, r24
     ec2:	f3 01       	movw	r30, r6
     ec4:	e8 0f       	add	r30, r24
     ec6:	f1 1d       	adc	r31, r1
     ec8:	80 81       	ld	r24, Z
     eca:	b7 01       	movw	r22, r14
     ecc:	90 e0       	ldi	r25, 0x00	; 0
     ece:	0e 94 bb 0a 	call	0x1576	; 0x1576 <fputc>
     ed2:	80 2f       	mov	r24, r16
     ed4:	01 13       	cpse	r16, r17
     ed6:	f3 cf       	rjmp	.-26     	; 0xebe <vfprintf+0x370>
     ed8:	e6 cf       	rjmp	.-52     	; 0xea6 <vfprintf+0x358>
     eda:	85 e4       	ldi	r24, 0x45	; 69
     edc:	90 e0       	ldi	r25, 0x00	; 0
     ede:	b7 01       	movw	r22, r14
     ee0:	0e 94 bb 0a 	call	0x1576	; 0x1576 <fputc>
     ee4:	d7 fc       	sbrc	r13, 7
     ee6:	06 c0       	rjmp	.+12     	; 0xef4 <vfprintf+0x3a6>
     ee8:	c1 14       	cp	r12, r1
     eea:	d1 04       	cpc	r13, r1
     eec:	41 f4       	brne	.+16     	; 0xefe <vfprintf+0x3b0>
     eee:	ec 85       	ldd	r30, Y+12	; 0x0c
     ef0:	e4 ff       	sbrs	r30, 4
     ef2:	05 c0       	rjmp	.+10     	; 0xefe <vfprintf+0x3b0>
     ef4:	d1 94       	neg	r13
     ef6:	c1 94       	neg	r12
     ef8:	d1 08       	sbc	r13, r1
     efa:	8d e2       	ldi	r24, 0x2D	; 45
     efc:	01 c0       	rjmp	.+2      	; 0xf00 <vfprintf+0x3b2>
     efe:	8b e2       	ldi	r24, 0x2B	; 43
     f00:	b7 01       	movw	r22, r14
     f02:	90 e0       	ldi	r25, 0x00	; 0
     f04:	0e 94 bb 0a 	call	0x1576	; 0x1576 <fputc>
     f08:	80 e3       	ldi	r24, 0x30	; 48
     f0a:	2a e0       	ldi	r18, 0x0A	; 10
     f0c:	c2 16       	cp	r12, r18
     f0e:	d1 04       	cpc	r13, r1
     f10:	2c f0       	brlt	.+10     	; 0xf1c <vfprintf+0x3ce>
     f12:	8f 5f       	subi	r24, 0xFF	; 255
     f14:	fa e0       	ldi	r31, 0x0A	; 10
     f16:	cf 1a       	sub	r12, r31
     f18:	d1 08       	sbc	r13, r1
     f1a:	f7 cf       	rjmp	.-18     	; 0xf0a <vfprintf+0x3bc>
     f1c:	b7 01       	movw	r22, r14
     f1e:	90 e0       	ldi	r25, 0x00	; 0
     f20:	0e 94 bb 0a 	call	0x1576	; 0x1576 <fputc>
     f24:	b7 01       	movw	r22, r14
     f26:	c6 01       	movw	r24, r12
     f28:	c0 96       	adiw	r24, 0x30	; 48
     f2a:	0e 94 bb 0a 	call	0x1576	; 0x1576 <fputc>
     f2e:	54 c1       	rjmp	.+680    	; 0x11d8 <vfprintf+0x68a>
     f30:	83 36       	cpi	r24, 0x63	; 99
     f32:	31 f0       	breq	.+12     	; 0xf40 <vfprintf+0x3f2>
     f34:	83 37       	cpi	r24, 0x73	; 115
     f36:	79 f0       	breq	.+30     	; 0xf56 <vfprintf+0x408>
     f38:	83 35       	cpi	r24, 0x53	; 83
     f3a:	09 f0       	breq	.+2      	; 0xf3e <vfprintf+0x3f0>
     f3c:	56 c0       	rjmp	.+172    	; 0xfea <vfprintf+0x49c>
     f3e:	20 c0       	rjmp	.+64     	; 0xf80 <vfprintf+0x432>
     f40:	56 01       	movw	r10, r12
     f42:	32 e0       	ldi	r19, 0x02	; 2
     f44:	a3 0e       	add	r10, r19
     f46:	b1 1c       	adc	r11, r1
     f48:	f6 01       	movw	r30, r12
     f4a:	80 81       	ld	r24, Z
     f4c:	89 83       	std	Y+1, r24	; 0x01
     f4e:	01 e0       	ldi	r16, 0x01	; 1
     f50:	10 e0       	ldi	r17, 0x00	; 0
     f52:	63 01       	movw	r12, r6
     f54:	12 c0       	rjmp	.+36     	; 0xf7a <vfprintf+0x42c>
     f56:	56 01       	movw	r10, r12
     f58:	f2 e0       	ldi	r31, 0x02	; 2
     f5a:	af 0e       	add	r10, r31
     f5c:	b1 1c       	adc	r11, r1
     f5e:	f6 01       	movw	r30, r12
     f60:	c0 80       	ld	r12, Z
     f62:	d1 80       	ldd	r13, Z+1	; 0x01
     f64:	96 fe       	sbrs	r9, 6
     f66:	03 c0       	rjmp	.+6      	; 0xf6e <vfprintf+0x420>
     f68:	61 2f       	mov	r22, r17
     f6a:	70 e0       	ldi	r23, 0x00	; 0
     f6c:	02 c0       	rjmp	.+4      	; 0xf72 <vfprintf+0x424>
     f6e:	6f ef       	ldi	r22, 0xFF	; 255
     f70:	7f ef       	ldi	r23, 0xFF	; 255
     f72:	c6 01       	movw	r24, r12
     f74:	0e 94 83 0a 	call	0x1506	; 0x1506 <strnlen>
     f78:	8c 01       	movw	r16, r24
     f7a:	f9 2d       	mov	r31, r9
     f7c:	ff 77       	andi	r31, 0x7F	; 127
     f7e:	14 c0       	rjmp	.+40     	; 0xfa8 <vfprintf+0x45a>
     f80:	56 01       	movw	r10, r12
     f82:	22 e0       	ldi	r18, 0x02	; 2
     f84:	a2 0e       	add	r10, r18
     f86:	b1 1c       	adc	r11, r1
     f88:	f6 01       	movw	r30, r12
     f8a:	c0 80       	ld	r12, Z
     f8c:	d1 80       	ldd	r13, Z+1	; 0x01
     f8e:	96 fe       	sbrs	r9, 6
     f90:	03 c0       	rjmp	.+6      	; 0xf98 <vfprintf+0x44a>
     f92:	61 2f       	mov	r22, r17
     f94:	70 e0       	ldi	r23, 0x00	; 0
     f96:	02 c0       	rjmp	.+4      	; 0xf9c <vfprintf+0x44e>
     f98:	6f ef       	ldi	r22, 0xFF	; 255
     f9a:	7f ef       	ldi	r23, 0xFF	; 255
     f9c:	c6 01       	movw	r24, r12
     f9e:	0e 94 66 0a 	call	0x14cc	; 0x14cc <strnlen_P>
     fa2:	8c 01       	movw	r16, r24
     fa4:	f9 2d       	mov	r31, r9
     fa6:	f0 68       	ori	r31, 0x80	; 128
     fa8:	9f 2e       	mov	r9, r31
     faa:	f3 fd       	sbrc	r31, 3
     fac:	1a c0       	rjmp	.+52     	; 0xfe2 <vfprintf+0x494>
     fae:	85 2d       	mov	r24, r5
     fb0:	90 e0       	ldi	r25, 0x00	; 0
     fb2:	08 17       	cp	r16, r24
     fb4:	19 07       	cpc	r17, r25
     fb6:	a8 f4       	brcc	.+42     	; 0xfe2 <vfprintf+0x494>
     fb8:	b7 01       	movw	r22, r14
     fba:	80 e2       	ldi	r24, 0x20	; 32
     fbc:	90 e0       	ldi	r25, 0x00	; 0
     fbe:	0e 94 bb 0a 	call	0x1576	; 0x1576 <fputc>
     fc2:	5a 94       	dec	r5
     fc4:	f4 cf       	rjmp	.-24     	; 0xfae <vfprintf+0x460>
     fc6:	f6 01       	movw	r30, r12
     fc8:	97 fc       	sbrc	r9, 7
     fca:	85 91       	lpm	r24, Z+
     fcc:	97 fe       	sbrs	r9, 7
     fce:	81 91       	ld	r24, Z+
     fd0:	6f 01       	movw	r12, r30
     fd2:	b7 01       	movw	r22, r14
     fd4:	90 e0       	ldi	r25, 0x00	; 0
     fd6:	0e 94 bb 0a 	call	0x1576	; 0x1576 <fputc>
     fda:	51 10       	cpse	r5, r1
     fdc:	5a 94       	dec	r5
     fde:	01 50       	subi	r16, 0x01	; 1
     fe0:	11 09       	sbc	r17, r1
     fe2:	01 15       	cp	r16, r1
     fe4:	11 05       	cpc	r17, r1
     fe6:	79 f7       	brne	.-34     	; 0xfc6 <vfprintf+0x478>
     fe8:	f7 c0       	rjmp	.+494    	; 0x11d8 <vfprintf+0x68a>
     fea:	84 36       	cpi	r24, 0x64	; 100
     fec:	11 f0       	breq	.+4      	; 0xff2 <vfprintf+0x4a4>
     fee:	89 36       	cpi	r24, 0x69	; 105
     ff0:	61 f5       	brne	.+88     	; 0x104a <vfprintf+0x4fc>
     ff2:	56 01       	movw	r10, r12
     ff4:	97 fe       	sbrs	r9, 7
     ff6:	09 c0       	rjmp	.+18     	; 0x100a <vfprintf+0x4bc>
     ff8:	24 e0       	ldi	r18, 0x04	; 4
     ffa:	a2 0e       	add	r10, r18
     ffc:	b1 1c       	adc	r11, r1
     ffe:	f6 01       	movw	r30, r12
    1000:	60 81       	ld	r22, Z
    1002:	71 81       	ldd	r23, Z+1	; 0x01
    1004:	82 81       	ldd	r24, Z+2	; 0x02
    1006:	93 81       	ldd	r25, Z+3	; 0x03
    1008:	0a c0       	rjmp	.+20     	; 0x101e <vfprintf+0x4d0>
    100a:	f2 e0       	ldi	r31, 0x02	; 2
    100c:	af 0e       	add	r10, r31
    100e:	b1 1c       	adc	r11, r1
    1010:	f6 01       	movw	r30, r12
    1012:	60 81       	ld	r22, Z
    1014:	71 81       	ldd	r23, Z+1	; 0x01
    1016:	07 2e       	mov	r0, r23
    1018:	00 0c       	add	r0, r0
    101a:	88 0b       	sbc	r24, r24
    101c:	99 0b       	sbc	r25, r25
    101e:	f9 2d       	mov	r31, r9
    1020:	ff 76       	andi	r31, 0x6F	; 111
    1022:	9f 2e       	mov	r9, r31
    1024:	97 ff       	sbrs	r25, 7
    1026:	09 c0       	rjmp	.+18     	; 0x103a <vfprintf+0x4ec>
    1028:	90 95       	com	r25
    102a:	80 95       	com	r24
    102c:	70 95       	com	r23
    102e:	61 95       	neg	r22
    1030:	7f 4f       	sbci	r23, 0xFF	; 255
    1032:	8f 4f       	sbci	r24, 0xFF	; 255
    1034:	9f 4f       	sbci	r25, 0xFF	; 255
    1036:	f0 68       	ori	r31, 0x80	; 128
    1038:	9f 2e       	mov	r9, r31
    103a:	2a e0       	ldi	r18, 0x0A	; 10
    103c:	30 e0       	ldi	r19, 0x00	; 0
    103e:	a3 01       	movw	r20, r6
    1040:	0e 94 f7 0a 	call	0x15ee	; 0x15ee <__ultoa_invert>
    1044:	c8 2e       	mov	r12, r24
    1046:	c6 18       	sub	r12, r6
    1048:	3f c0       	rjmp	.+126    	; 0x10c8 <vfprintf+0x57a>
    104a:	09 2d       	mov	r16, r9
    104c:	85 37       	cpi	r24, 0x75	; 117
    104e:	21 f4       	brne	.+8      	; 0x1058 <vfprintf+0x50a>
    1050:	0f 7e       	andi	r16, 0xEF	; 239
    1052:	2a e0       	ldi	r18, 0x0A	; 10
    1054:	30 e0       	ldi	r19, 0x00	; 0
    1056:	1d c0       	rjmp	.+58     	; 0x1092 <vfprintf+0x544>
    1058:	09 7f       	andi	r16, 0xF9	; 249
    105a:	8f 36       	cpi	r24, 0x6F	; 111
    105c:	91 f0       	breq	.+36     	; 0x1082 <vfprintf+0x534>
    105e:	18 f4       	brcc	.+6      	; 0x1066 <vfprintf+0x518>
    1060:	88 35       	cpi	r24, 0x58	; 88
    1062:	59 f0       	breq	.+22     	; 0x107a <vfprintf+0x52c>
    1064:	c3 c0       	rjmp	.+390    	; 0x11ec <vfprintf+0x69e>
    1066:	80 37       	cpi	r24, 0x70	; 112
    1068:	19 f0       	breq	.+6      	; 0x1070 <vfprintf+0x522>
    106a:	88 37       	cpi	r24, 0x78	; 120
    106c:	11 f0       	breq	.+4      	; 0x1072 <vfprintf+0x524>
    106e:	be c0       	rjmp	.+380    	; 0x11ec <vfprintf+0x69e>
    1070:	00 61       	ori	r16, 0x10	; 16
    1072:	04 ff       	sbrs	r16, 4
    1074:	09 c0       	rjmp	.+18     	; 0x1088 <vfprintf+0x53a>
    1076:	04 60       	ori	r16, 0x04	; 4
    1078:	07 c0       	rjmp	.+14     	; 0x1088 <vfprintf+0x53a>
    107a:	94 fe       	sbrs	r9, 4
    107c:	08 c0       	rjmp	.+16     	; 0x108e <vfprintf+0x540>
    107e:	06 60       	ori	r16, 0x06	; 6
    1080:	06 c0       	rjmp	.+12     	; 0x108e <vfprintf+0x540>
    1082:	28 e0       	ldi	r18, 0x08	; 8
    1084:	30 e0       	ldi	r19, 0x00	; 0
    1086:	05 c0       	rjmp	.+10     	; 0x1092 <vfprintf+0x544>
    1088:	20 e1       	ldi	r18, 0x10	; 16
    108a:	30 e0       	ldi	r19, 0x00	; 0
    108c:	02 c0       	rjmp	.+4      	; 0x1092 <vfprintf+0x544>
    108e:	20 e1       	ldi	r18, 0x10	; 16
    1090:	32 e0       	ldi	r19, 0x02	; 2
    1092:	56 01       	movw	r10, r12
    1094:	07 ff       	sbrs	r16, 7
    1096:	09 c0       	rjmp	.+18     	; 0x10aa <vfprintf+0x55c>
    1098:	84 e0       	ldi	r24, 0x04	; 4
    109a:	a8 0e       	add	r10, r24
    109c:	b1 1c       	adc	r11, r1
    109e:	f6 01       	movw	r30, r12
    10a0:	60 81       	ld	r22, Z
    10a2:	71 81       	ldd	r23, Z+1	; 0x01
    10a4:	82 81       	ldd	r24, Z+2	; 0x02
    10a6:	93 81       	ldd	r25, Z+3	; 0x03
    10a8:	08 c0       	rjmp	.+16     	; 0x10ba <vfprintf+0x56c>
    10aa:	f2 e0       	ldi	r31, 0x02	; 2
    10ac:	af 0e       	add	r10, r31
    10ae:	b1 1c       	adc	r11, r1
    10b0:	f6 01       	movw	r30, r12
    10b2:	60 81       	ld	r22, Z
    10b4:	71 81       	ldd	r23, Z+1	; 0x01
    10b6:	80 e0       	ldi	r24, 0x00	; 0
    10b8:	90 e0       	ldi	r25, 0x00	; 0
    10ba:	a3 01       	movw	r20, r6
    10bc:	0e 94 f7 0a 	call	0x15ee	; 0x15ee <__ultoa_invert>
    10c0:	c8 2e       	mov	r12, r24
    10c2:	c6 18       	sub	r12, r6
    10c4:	0f 77       	andi	r16, 0x7F	; 127
    10c6:	90 2e       	mov	r9, r16
    10c8:	96 fe       	sbrs	r9, 6
    10ca:	0b c0       	rjmp	.+22     	; 0x10e2 <vfprintf+0x594>
    10cc:	09 2d       	mov	r16, r9
    10ce:	0e 7f       	andi	r16, 0xFE	; 254
    10d0:	c1 16       	cp	r12, r17
    10d2:	50 f4       	brcc	.+20     	; 0x10e8 <vfprintf+0x59a>
    10d4:	94 fe       	sbrs	r9, 4
    10d6:	0a c0       	rjmp	.+20     	; 0x10ec <vfprintf+0x59e>
    10d8:	92 fc       	sbrc	r9, 2
    10da:	08 c0       	rjmp	.+16     	; 0x10ec <vfprintf+0x59e>
    10dc:	09 2d       	mov	r16, r9
    10de:	0e 7e       	andi	r16, 0xEE	; 238
    10e0:	05 c0       	rjmp	.+10     	; 0x10ec <vfprintf+0x59e>
    10e2:	dc 2c       	mov	r13, r12
    10e4:	09 2d       	mov	r16, r9
    10e6:	03 c0       	rjmp	.+6      	; 0x10ee <vfprintf+0x5a0>
    10e8:	dc 2c       	mov	r13, r12
    10ea:	01 c0       	rjmp	.+2      	; 0x10ee <vfprintf+0x5a0>
    10ec:	d1 2e       	mov	r13, r17
    10ee:	04 ff       	sbrs	r16, 4
    10f0:	0d c0       	rjmp	.+26     	; 0x110c <vfprintf+0x5be>
    10f2:	fe 01       	movw	r30, r28
    10f4:	ec 0d       	add	r30, r12
    10f6:	f1 1d       	adc	r31, r1
    10f8:	80 81       	ld	r24, Z
    10fa:	80 33       	cpi	r24, 0x30	; 48
    10fc:	11 f4       	brne	.+4      	; 0x1102 <vfprintf+0x5b4>
    10fe:	09 7e       	andi	r16, 0xE9	; 233
    1100:	09 c0       	rjmp	.+18     	; 0x1114 <vfprintf+0x5c6>
    1102:	02 ff       	sbrs	r16, 2
    1104:	06 c0       	rjmp	.+12     	; 0x1112 <vfprintf+0x5c4>
    1106:	d3 94       	inc	r13
    1108:	d3 94       	inc	r13
    110a:	04 c0       	rjmp	.+8      	; 0x1114 <vfprintf+0x5c6>
    110c:	80 2f       	mov	r24, r16
    110e:	86 78       	andi	r24, 0x86	; 134
    1110:	09 f0       	breq	.+2      	; 0x1114 <vfprintf+0x5c6>
    1112:	d3 94       	inc	r13
    1114:	03 fd       	sbrc	r16, 3
    1116:	11 c0       	rjmp	.+34     	; 0x113a <vfprintf+0x5ec>
    1118:	00 ff       	sbrs	r16, 0
    111a:	06 c0       	rjmp	.+12     	; 0x1128 <vfprintf+0x5da>
    111c:	1c 2d       	mov	r17, r12
    111e:	d5 14       	cp	r13, r5
    1120:	80 f4       	brcc	.+32     	; 0x1142 <vfprintf+0x5f4>
    1122:	15 0d       	add	r17, r5
    1124:	1d 19       	sub	r17, r13
    1126:	0d c0       	rjmp	.+26     	; 0x1142 <vfprintf+0x5f4>
    1128:	d5 14       	cp	r13, r5
    112a:	58 f4       	brcc	.+22     	; 0x1142 <vfprintf+0x5f4>
    112c:	b7 01       	movw	r22, r14
    112e:	80 e2       	ldi	r24, 0x20	; 32
    1130:	90 e0       	ldi	r25, 0x00	; 0
    1132:	0e 94 bb 0a 	call	0x1576	; 0x1576 <fputc>
    1136:	d3 94       	inc	r13
    1138:	f7 cf       	rjmp	.-18     	; 0x1128 <vfprintf+0x5da>
    113a:	d5 14       	cp	r13, r5
    113c:	10 f4       	brcc	.+4      	; 0x1142 <vfprintf+0x5f4>
    113e:	5d 18       	sub	r5, r13
    1140:	01 c0       	rjmp	.+2      	; 0x1144 <vfprintf+0x5f6>
    1142:	51 2c       	mov	r5, r1
    1144:	04 ff       	sbrs	r16, 4
    1146:	10 c0       	rjmp	.+32     	; 0x1168 <vfprintf+0x61a>
    1148:	b7 01       	movw	r22, r14
    114a:	80 e3       	ldi	r24, 0x30	; 48
    114c:	90 e0       	ldi	r25, 0x00	; 0
    114e:	0e 94 bb 0a 	call	0x1576	; 0x1576 <fputc>
    1152:	02 ff       	sbrs	r16, 2
    1154:	17 c0       	rjmp	.+46     	; 0x1184 <vfprintf+0x636>
    1156:	01 fd       	sbrc	r16, 1
    1158:	03 c0       	rjmp	.+6      	; 0x1160 <vfprintf+0x612>
    115a:	88 e7       	ldi	r24, 0x78	; 120
    115c:	90 e0       	ldi	r25, 0x00	; 0
    115e:	02 c0       	rjmp	.+4      	; 0x1164 <vfprintf+0x616>
    1160:	88 e5       	ldi	r24, 0x58	; 88
    1162:	90 e0       	ldi	r25, 0x00	; 0
    1164:	b7 01       	movw	r22, r14
    1166:	0c c0       	rjmp	.+24     	; 0x1180 <vfprintf+0x632>
    1168:	80 2f       	mov	r24, r16
    116a:	86 78       	andi	r24, 0x86	; 134
    116c:	59 f0       	breq	.+22     	; 0x1184 <vfprintf+0x636>
    116e:	01 ff       	sbrs	r16, 1
    1170:	02 c0       	rjmp	.+4      	; 0x1176 <vfprintf+0x628>
    1172:	8b e2       	ldi	r24, 0x2B	; 43
    1174:	01 c0       	rjmp	.+2      	; 0x1178 <vfprintf+0x62a>
    1176:	80 e2       	ldi	r24, 0x20	; 32
    1178:	07 fd       	sbrc	r16, 7
    117a:	8d e2       	ldi	r24, 0x2D	; 45
    117c:	b7 01       	movw	r22, r14
    117e:	90 e0       	ldi	r25, 0x00	; 0
    1180:	0e 94 bb 0a 	call	0x1576	; 0x1576 <fputc>
    1184:	c1 16       	cp	r12, r17
    1186:	38 f4       	brcc	.+14     	; 0x1196 <vfprintf+0x648>
    1188:	b7 01       	movw	r22, r14
    118a:	80 e3       	ldi	r24, 0x30	; 48
    118c:	90 e0       	ldi	r25, 0x00	; 0
    118e:	0e 94 bb 0a 	call	0x1576	; 0x1576 <fputc>
    1192:	11 50       	subi	r17, 0x01	; 1
    1194:	f7 cf       	rjmp	.-18     	; 0x1184 <vfprintf+0x636>
    1196:	ca 94       	dec	r12
    1198:	f3 01       	movw	r30, r6
    119a:	ec 0d       	add	r30, r12
    119c:	f1 1d       	adc	r31, r1
    119e:	80 81       	ld	r24, Z
    11a0:	b7 01       	movw	r22, r14
    11a2:	90 e0       	ldi	r25, 0x00	; 0
    11a4:	0e 94 bb 0a 	call	0x1576	; 0x1576 <fputc>
    11a8:	c1 10       	cpse	r12, r1
    11aa:	f5 cf       	rjmp	.-22     	; 0x1196 <vfprintf+0x648>
    11ac:	15 c0       	rjmp	.+42     	; 0x11d8 <vfprintf+0x68a>
    11ae:	f4 e0       	ldi	r31, 0x04	; 4
    11b0:	f5 15       	cp	r31, r5
    11b2:	60 f5       	brcc	.+88     	; 0x120c <vfprintf+0x6be>
    11b4:	84 e0       	ldi	r24, 0x04	; 4
    11b6:	58 1a       	sub	r5, r24
    11b8:	93 fe       	sbrs	r9, 3
    11ba:	1f c0       	rjmp	.+62     	; 0x11fa <vfprintf+0x6ac>
    11bc:	01 11       	cpse	r16, r1
    11be:	27 c0       	rjmp	.+78     	; 0x120e <vfprintf+0x6c0>
    11c0:	2c 85       	ldd	r18, Y+12	; 0x0c
    11c2:	23 ff       	sbrs	r18, 3
    11c4:	2a c0       	rjmp	.+84     	; 0x121a <vfprintf+0x6cc>
    11c6:	0e ed       	ldi	r16, 0xDE	; 222
    11c8:	10 e0       	ldi	r17, 0x00	; 0
    11ca:	39 2d       	mov	r19, r9
    11cc:	30 71       	andi	r19, 0x10	; 16
    11ce:	93 2e       	mov	r9, r19
    11d0:	f8 01       	movw	r30, r16
    11d2:	84 91       	lpm	r24, Z
    11d4:	81 11       	cpse	r24, r1
    11d6:	24 c0       	rjmp	.+72     	; 0x1220 <vfprintf+0x6d2>
    11d8:	55 20       	and	r5, r5
    11da:	09 f4       	brne	.+2      	; 0x11de <vfprintf+0x690>
    11dc:	e4 cc       	rjmp	.-1592   	; 0xba6 <vfprintf+0x58>
    11de:	b7 01       	movw	r22, r14
    11e0:	80 e2       	ldi	r24, 0x20	; 32
    11e2:	90 e0       	ldi	r25, 0x00	; 0
    11e4:	0e 94 bb 0a 	call	0x1576	; 0x1576 <fputc>
    11e8:	5a 94       	dec	r5
    11ea:	f6 cf       	rjmp	.-20     	; 0x11d8 <vfprintf+0x68a>
    11ec:	f7 01       	movw	r30, r14
    11ee:	86 81       	ldd	r24, Z+6	; 0x06
    11f0:	97 81       	ldd	r25, Z+7	; 0x07
    11f2:	26 c0       	rjmp	.+76     	; 0x1240 <vfprintf+0x6f2>
    11f4:	8f ef       	ldi	r24, 0xFF	; 255
    11f6:	9f ef       	ldi	r25, 0xFF	; 255
    11f8:	23 c0       	rjmp	.+70     	; 0x1240 <vfprintf+0x6f2>
    11fa:	b7 01       	movw	r22, r14
    11fc:	80 e2       	ldi	r24, 0x20	; 32
    11fe:	90 e0       	ldi	r25, 0x00	; 0
    1200:	0e 94 bb 0a 	call	0x1576	; 0x1576 <fputc>
    1204:	5a 94       	dec	r5
    1206:	51 10       	cpse	r5, r1
    1208:	f8 cf       	rjmp	.-16     	; 0x11fa <vfprintf+0x6ac>
    120a:	d8 cf       	rjmp	.-80     	; 0x11bc <vfprintf+0x66e>
    120c:	51 2c       	mov	r5, r1
    120e:	b7 01       	movw	r22, r14
    1210:	80 2f       	mov	r24, r16
    1212:	90 e0       	ldi	r25, 0x00	; 0
    1214:	0e 94 bb 0a 	call	0x1576	; 0x1576 <fputc>
    1218:	d3 cf       	rjmp	.-90     	; 0x11c0 <vfprintf+0x672>
    121a:	02 ee       	ldi	r16, 0xE2	; 226
    121c:	10 e0       	ldi	r17, 0x00	; 0
    121e:	d5 cf       	rjmp	.-86     	; 0x11ca <vfprintf+0x67c>
    1220:	91 10       	cpse	r9, r1
    1222:	80 52       	subi	r24, 0x20	; 32
    1224:	b7 01       	movw	r22, r14
    1226:	90 e0       	ldi	r25, 0x00	; 0
    1228:	0e 94 bb 0a 	call	0x1576	; 0x1576 <fputc>
    122c:	0f 5f       	subi	r16, 0xFF	; 255
    122e:	1f 4f       	sbci	r17, 0xFF	; 255
    1230:	cf cf       	rjmp	.-98     	; 0x11d0 <vfprintf+0x682>
    1232:	23 e0       	ldi	r18, 0x03	; 3
    1234:	25 15       	cp	r18, r5
    1236:	10 f4       	brcc	.+4      	; 0x123c <vfprintf+0x6ee>
    1238:	83 e0       	ldi	r24, 0x03	; 3
    123a:	bd cf       	rjmp	.-134    	; 0x11b6 <vfprintf+0x668>
    123c:	51 2c       	mov	r5, r1
    123e:	c0 cf       	rjmp	.-128    	; 0x11c0 <vfprintf+0x672>
    1240:	60 96       	adiw	r28, 0x10	; 16
    1242:	e2 e1       	ldi	r30, 0x12	; 18
    1244:	0c 94 55 09 	jmp	0x12aa	; 0x12aa <__epilogue_restores__>

00001248 <__tablejump2__>:
    1248:	ee 0f       	add	r30, r30
    124a:	ff 1f       	adc	r31, r31
    124c:	05 90       	lpm	r0, Z+
    124e:	f4 91       	lpm	r31, Z
    1250:	e0 2d       	mov	r30, r0
    1252:	09 94       	ijmp

00001254 <__umulhisi3>:
    1254:	a2 9f       	mul	r26, r18
    1256:	b0 01       	movw	r22, r0
    1258:	b3 9f       	mul	r27, r19
    125a:	c0 01       	movw	r24, r0
    125c:	a3 9f       	mul	r26, r19
    125e:	70 0d       	add	r23, r0
    1260:	81 1d       	adc	r24, r1
    1262:	11 24       	eor	r1, r1
    1264:	91 1d       	adc	r25, r1
    1266:	b2 9f       	mul	r27, r18
    1268:	70 0d       	add	r23, r0
    126a:	81 1d       	adc	r24, r1
    126c:	11 24       	eor	r1, r1
    126e:	91 1d       	adc	r25, r1
    1270:	08 95       	ret

00001272 <__prologue_saves__>:
    1272:	2f 92       	push	r2
    1274:	3f 92       	push	r3
    1276:	4f 92       	push	r4
    1278:	5f 92       	push	r5
    127a:	6f 92       	push	r6
    127c:	7f 92       	push	r7
    127e:	8f 92       	push	r8
    1280:	9f 92       	push	r9
    1282:	af 92       	push	r10
    1284:	bf 92       	push	r11
    1286:	cf 92       	push	r12
    1288:	df 92       	push	r13
    128a:	ef 92       	push	r14
    128c:	ff 92       	push	r15
    128e:	0f 93       	push	r16
    1290:	1f 93       	push	r17
    1292:	cf 93       	push	r28
    1294:	df 93       	push	r29
    1296:	cd b7       	in	r28, 0x3d	; 61
    1298:	de b7       	in	r29, 0x3e	; 62
    129a:	ca 1b       	sub	r28, r26
    129c:	db 0b       	sbc	r29, r27
    129e:	0f b6       	in	r0, 0x3f	; 63
    12a0:	f8 94       	cli
    12a2:	de bf       	out	0x3e, r29	; 62
    12a4:	0f be       	out	0x3f, r0	; 63
    12a6:	cd bf       	out	0x3d, r28	; 61
    12a8:	09 94       	ijmp

000012aa <__epilogue_restores__>:
    12aa:	2a 88       	ldd	r2, Y+18	; 0x12
    12ac:	39 88       	ldd	r3, Y+17	; 0x11
    12ae:	48 88       	ldd	r4, Y+16	; 0x10
    12b0:	5f 84       	ldd	r5, Y+15	; 0x0f
    12b2:	6e 84       	ldd	r6, Y+14	; 0x0e
    12b4:	7d 84       	ldd	r7, Y+13	; 0x0d
    12b6:	8c 84       	ldd	r8, Y+12	; 0x0c
    12b8:	9b 84       	ldd	r9, Y+11	; 0x0b
    12ba:	aa 84       	ldd	r10, Y+10	; 0x0a
    12bc:	b9 84       	ldd	r11, Y+9	; 0x09
    12be:	c8 84       	ldd	r12, Y+8	; 0x08
    12c0:	df 80       	ldd	r13, Y+7	; 0x07
    12c2:	ee 80       	ldd	r14, Y+6	; 0x06
    12c4:	fd 80       	ldd	r15, Y+5	; 0x05
    12c6:	0c 81       	ldd	r16, Y+4	; 0x04
    12c8:	1b 81       	ldd	r17, Y+3	; 0x03
    12ca:	aa 81       	ldd	r26, Y+2	; 0x02
    12cc:	b9 81       	ldd	r27, Y+1	; 0x01
    12ce:	ce 0f       	add	r28, r30
    12d0:	d1 1d       	adc	r29, r1
    12d2:	0f b6       	in	r0, 0x3f	; 63
    12d4:	f8 94       	cli
    12d6:	de bf       	out	0x3e, r29	; 62
    12d8:	0f be       	out	0x3f, r0	; 63
    12da:	cd bf       	out	0x3d, r28	; 61
    12dc:	ed 01       	movw	r28, r26
    12de:	08 95       	ret

000012e0 <atoi>:
    12e0:	fc 01       	movw	r30, r24
    12e2:	88 27       	eor	r24, r24
    12e4:	99 27       	eor	r25, r25
    12e6:	e8 94       	clt
    12e8:	21 91       	ld	r18, Z+
    12ea:	20 32       	cpi	r18, 0x20	; 32
    12ec:	e9 f3       	breq	.-6      	; 0x12e8 <atoi+0x8>
    12ee:	29 30       	cpi	r18, 0x09	; 9
    12f0:	10 f0       	brcs	.+4      	; 0x12f6 <atoi+0x16>
    12f2:	2e 30       	cpi	r18, 0x0E	; 14
    12f4:	c8 f3       	brcs	.-14     	; 0x12e8 <atoi+0x8>
    12f6:	2b 32       	cpi	r18, 0x2B	; 43
    12f8:	41 f0       	breq	.+16     	; 0x130a <atoi+0x2a>
    12fa:	2d 32       	cpi	r18, 0x2D	; 45
    12fc:	39 f4       	brne	.+14     	; 0x130c <atoi+0x2c>
    12fe:	68 94       	set
    1300:	04 c0       	rjmp	.+8      	; 0x130a <atoi+0x2a>
    1302:	0e 94 99 0a 	call	0x1532	; 0x1532 <__mulhi_const_10>
    1306:	82 0f       	add	r24, r18
    1308:	91 1d       	adc	r25, r1
    130a:	21 91       	ld	r18, Z+
    130c:	20 53       	subi	r18, 0x30	; 48
    130e:	2a 30       	cpi	r18, 0x0A	; 10
    1310:	c0 f3       	brcs	.-16     	; 0x1302 <atoi+0x22>
    1312:	1e f4       	brtc	.+6      	; 0x131a <atoi+0x3a>
    1314:	90 95       	com	r25
    1316:	81 95       	neg	r24
    1318:	9f 4f       	sbci	r25, 0xFF	; 255
    131a:	08 95       	ret

0000131c <__ftoa_engine>:
    131c:	28 30       	cpi	r18, 0x08	; 8
    131e:	08 f0       	brcs	.+2      	; 0x1322 <__ftoa_engine+0x6>
    1320:	27 e0       	ldi	r18, 0x07	; 7
    1322:	33 27       	eor	r19, r19
    1324:	da 01       	movw	r26, r20
    1326:	99 0f       	add	r25, r25
    1328:	31 1d       	adc	r19, r1
    132a:	87 fd       	sbrc	r24, 7
    132c:	91 60       	ori	r25, 0x01	; 1
    132e:	00 96       	adiw	r24, 0x00	; 0
    1330:	61 05       	cpc	r22, r1
    1332:	71 05       	cpc	r23, r1
    1334:	39 f4       	brne	.+14     	; 0x1344 <__ftoa_engine+0x28>
    1336:	32 60       	ori	r19, 0x02	; 2
    1338:	2e 5f       	subi	r18, 0xFE	; 254
    133a:	3d 93       	st	X+, r19
    133c:	30 e3       	ldi	r19, 0x30	; 48
    133e:	2a 95       	dec	r18
    1340:	e1 f7       	brne	.-8      	; 0x133a <__ftoa_engine+0x1e>
    1342:	08 95       	ret
    1344:	9f 3f       	cpi	r25, 0xFF	; 255
    1346:	30 f0       	brcs	.+12     	; 0x1354 <__ftoa_engine+0x38>
    1348:	80 38       	cpi	r24, 0x80	; 128
    134a:	71 05       	cpc	r23, r1
    134c:	61 05       	cpc	r22, r1
    134e:	09 f0       	breq	.+2      	; 0x1352 <__ftoa_engine+0x36>
    1350:	3c 5f       	subi	r19, 0xFC	; 252
    1352:	3c 5f       	subi	r19, 0xFC	; 252
    1354:	3d 93       	st	X+, r19
    1356:	91 30       	cpi	r25, 0x01	; 1
    1358:	08 f0       	brcs	.+2      	; 0x135c <__ftoa_engine+0x40>
    135a:	80 68       	ori	r24, 0x80	; 128
    135c:	91 1d       	adc	r25, r1
    135e:	df 93       	push	r29
    1360:	cf 93       	push	r28
    1362:	1f 93       	push	r17
    1364:	0f 93       	push	r16
    1366:	ff 92       	push	r15
    1368:	ef 92       	push	r14
    136a:	19 2f       	mov	r17, r25
    136c:	98 7f       	andi	r25, 0xF8	; 248
    136e:	96 95       	lsr	r25
    1370:	e9 2f       	mov	r30, r25
    1372:	96 95       	lsr	r25
    1374:	96 95       	lsr	r25
    1376:	e9 0f       	add	r30, r25
    1378:	ff 27       	eor	r31, r31
    137a:	e0 5c       	subi	r30, 0xC0	; 192
    137c:	fe 4f       	sbci	r31, 0xFE	; 254
    137e:	99 27       	eor	r25, r25
    1380:	33 27       	eor	r19, r19
    1382:	ee 24       	eor	r14, r14
    1384:	ff 24       	eor	r15, r15
    1386:	a7 01       	movw	r20, r14
    1388:	e7 01       	movw	r28, r14
    138a:	05 90       	lpm	r0, Z+
    138c:	08 94       	sec
    138e:	07 94       	ror	r0
    1390:	28 f4       	brcc	.+10     	; 0x139c <__ftoa_engine+0x80>
    1392:	36 0f       	add	r19, r22
    1394:	e7 1e       	adc	r14, r23
    1396:	f8 1e       	adc	r15, r24
    1398:	49 1f       	adc	r20, r25
    139a:	51 1d       	adc	r21, r1
    139c:	66 0f       	add	r22, r22
    139e:	77 1f       	adc	r23, r23
    13a0:	88 1f       	adc	r24, r24
    13a2:	99 1f       	adc	r25, r25
    13a4:	06 94       	lsr	r0
    13a6:	a1 f7       	brne	.-24     	; 0x1390 <__ftoa_engine+0x74>
    13a8:	05 90       	lpm	r0, Z+
    13aa:	07 94       	ror	r0
    13ac:	28 f4       	brcc	.+10     	; 0x13b8 <__ftoa_engine+0x9c>
    13ae:	e7 0e       	add	r14, r23
    13b0:	f8 1e       	adc	r15, r24
    13b2:	49 1f       	adc	r20, r25
    13b4:	56 1f       	adc	r21, r22
    13b6:	c1 1d       	adc	r28, r1
    13b8:	77 0f       	add	r23, r23
    13ba:	88 1f       	adc	r24, r24
    13bc:	99 1f       	adc	r25, r25
    13be:	66 1f       	adc	r22, r22
    13c0:	06 94       	lsr	r0
    13c2:	a1 f7       	brne	.-24     	; 0x13ac <__ftoa_engine+0x90>
    13c4:	05 90       	lpm	r0, Z+
    13c6:	07 94       	ror	r0
    13c8:	28 f4       	brcc	.+10     	; 0x13d4 <__ftoa_engine+0xb8>
    13ca:	f8 0e       	add	r15, r24
    13cc:	49 1f       	adc	r20, r25
    13ce:	56 1f       	adc	r21, r22
    13d0:	c7 1f       	adc	r28, r23
    13d2:	d1 1d       	adc	r29, r1
    13d4:	88 0f       	add	r24, r24
    13d6:	99 1f       	adc	r25, r25
    13d8:	66 1f       	adc	r22, r22
    13da:	77 1f       	adc	r23, r23
    13dc:	06 94       	lsr	r0
    13de:	a1 f7       	brne	.-24     	; 0x13c8 <__ftoa_engine+0xac>
    13e0:	05 90       	lpm	r0, Z+
    13e2:	07 94       	ror	r0
    13e4:	20 f4       	brcc	.+8      	; 0x13ee <__ftoa_engine+0xd2>
    13e6:	49 0f       	add	r20, r25
    13e8:	56 1f       	adc	r21, r22
    13ea:	c7 1f       	adc	r28, r23
    13ec:	d8 1f       	adc	r29, r24
    13ee:	99 0f       	add	r25, r25
    13f0:	66 1f       	adc	r22, r22
    13f2:	77 1f       	adc	r23, r23
    13f4:	88 1f       	adc	r24, r24
    13f6:	06 94       	lsr	r0
    13f8:	a9 f7       	brne	.-22     	; 0x13e4 <__ftoa_engine+0xc8>
    13fa:	84 91       	lpm	r24, Z
    13fc:	10 95       	com	r17
    13fe:	17 70       	andi	r17, 0x07	; 7
    1400:	41 f0       	breq	.+16     	; 0x1412 <__ftoa_engine+0xf6>
    1402:	d6 95       	lsr	r29
    1404:	c7 95       	ror	r28
    1406:	57 95       	ror	r21
    1408:	47 95       	ror	r20
    140a:	f7 94       	ror	r15
    140c:	e7 94       	ror	r14
    140e:	1a 95       	dec	r17
    1410:	c1 f7       	brne	.-16     	; 0x1402 <__ftoa_engine+0xe6>
    1412:	e6 ee       	ldi	r30, 0xE6	; 230
    1414:	f0 e0       	ldi	r31, 0x00	; 0
    1416:	68 94       	set
    1418:	15 90       	lpm	r1, Z+
    141a:	15 91       	lpm	r17, Z+
    141c:	35 91       	lpm	r19, Z+
    141e:	65 91       	lpm	r22, Z+
    1420:	95 91       	lpm	r25, Z+
    1422:	05 90       	lpm	r0, Z+
    1424:	7f e2       	ldi	r23, 0x2F	; 47
    1426:	73 95       	inc	r23
    1428:	e1 18       	sub	r14, r1
    142a:	f1 0a       	sbc	r15, r17
    142c:	43 0b       	sbc	r20, r19
    142e:	56 0b       	sbc	r21, r22
    1430:	c9 0b       	sbc	r28, r25
    1432:	d0 09       	sbc	r29, r0
    1434:	c0 f7       	brcc	.-16     	; 0x1426 <__ftoa_engine+0x10a>
    1436:	e1 0c       	add	r14, r1
    1438:	f1 1e       	adc	r15, r17
    143a:	43 1f       	adc	r20, r19
    143c:	56 1f       	adc	r21, r22
    143e:	c9 1f       	adc	r28, r25
    1440:	d0 1d       	adc	r29, r0
    1442:	7e f4       	brtc	.+30     	; 0x1462 <__ftoa_engine+0x146>
    1444:	70 33       	cpi	r23, 0x30	; 48
    1446:	11 f4       	brne	.+4      	; 0x144c <__ftoa_engine+0x130>
    1448:	8a 95       	dec	r24
    144a:	e6 cf       	rjmp	.-52     	; 0x1418 <__ftoa_engine+0xfc>
    144c:	e8 94       	clt
    144e:	01 50       	subi	r16, 0x01	; 1
    1450:	30 f0       	brcs	.+12     	; 0x145e <__ftoa_engine+0x142>
    1452:	08 0f       	add	r16, r24
    1454:	0a f4       	brpl	.+2      	; 0x1458 <__ftoa_engine+0x13c>
    1456:	00 27       	eor	r16, r16
    1458:	02 17       	cp	r16, r18
    145a:	08 f4       	brcc	.+2      	; 0x145e <__ftoa_engine+0x142>
    145c:	20 2f       	mov	r18, r16
    145e:	23 95       	inc	r18
    1460:	02 2f       	mov	r16, r18
    1462:	7a 33       	cpi	r23, 0x3A	; 58
    1464:	28 f0       	brcs	.+10     	; 0x1470 <__ftoa_engine+0x154>
    1466:	79 e3       	ldi	r23, 0x39	; 57
    1468:	7d 93       	st	X+, r23
    146a:	2a 95       	dec	r18
    146c:	e9 f7       	brne	.-6      	; 0x1468 <__ftoa_engine+0x14c>
    146e:	10 c0       	rjmp	.+32     	; 0x1490 <__ftoa_engine+0x174>
    1470:	7d 93       	st	X+, r23
    1472:	2a 95       	dec	r18
    1474:	89 f6       	brne	.-94     	; 0x1418 <__ftoa_engine+0xfc>
    1476:	06 94       	lsr	r0
    1478:	97 95       	ror	r25
    147a:	67 95       	ror	r22
    147c:	37 95       	ror	r19
    147e:	17 95       	ror	r17
    1480:	17 94       	ror	r1
    1482:	e1 18       	sub	r14, r1
    1484:	f1 0a       	sbc	r15, r17
    1486:	43 0b       	sbc	r20, r19
    1488:	56 0b       	sbc	r21, r22
    148a:	c9 0b       	sbc	r28, r25
    148c:	d0 09       	sbc	r29, r0
    148e:	98 f0       	brcs	.+38     	; 0x14b6 <__ftoa_engine+0x19a>
    1490:	23 95       	inc	r18
    1492:	7e 91       	ld	r23, -X
    1494:	73 95       	inc	r23
    1496:	7a 33       	cpi	r23, 0x3A	; 58
    1498:	08 f0       	brcs	.+2      	; 0x149c <__ftoa_engine+0x180>
    149a:	70 e3       	ldi	r23, 0x30	; 48
    149c:	7c 93       	st	X, r23
    149e:	20 13       	cpse	r18, r16
    14a0:	b8 f7       	brcc	.-18     	; 0x1490 <__ftoa_engine+0x174>
    14a2:	7e 91       	ld	r23, -X
    14a4:	70 61       	ori	r23, 0x10	; 16
    14a6:	7d 93       	st	X+, r23
    14a8:	30 f0       	brcs	.+12     	; 0x14b6 <__ftoa_engine+0x19a>
    14aa:	83 95       	inc	r24
    14ac:	71 e3       	ldi	r23, 0x31	; 49
    14ae:	7d 93       	st	X+, r23
    14b0:	70 e3       	ldi	r23, 0x30	; 48
    14b2:	2a 95       	dec	r18
    14b4:	e1 f7       	brne	.-8      	; 0x14ae <__ftoa_engine+0x192>
    14b6:	11 24       	eor	r1, r1
    14b8:	ef 90       	pop	r14
    14ba:	ff 90       	pop	r15
    14bc:	0f 91       	pop	r16
    14be:	1f 91       	pop	r17
    14c0:	cf 91       	pop	r28
    14c2:	df 91       	pop	r29
    14c4:	99 27       	eor	r25, r25
    14c6:	87 fd       	sbrc	r24, 7
    14c8:	90 95       	com	r25
    14ca:	08 95       	ret

000014cc <strnlen_P>:
    14cc:	fc 01       	movw	r30, r24
    14ce:	05 90       	lpm	r0, Z+
    14d0:	61 50       	subi	r22, 0x01	; 1
    14d2:	70 40       	sbci	r23, 0x00	; 0
    14d4:	01 10       	cpse	r0, r1
    14d6:	d8 f7       	brcc	.-10     	; 0x14ce <strnlen_P+0x2>
    14d8:	80 95       	com	r24
    14da:	90 95       	com	r25
    14dc:	8e 0f       	add	r24, r30
    14de:	9f 1f       	adc	r25, r31
    14e0:	08 95       	ret

000014e2 <strchr>:
    14e2:	fc 01       	movw	r30, r24
    14e4:	81 91       	ld	r24, Z+
    14e6:	86 17       	cp	r24, r22
    14e8:	21 f0       	breq	.+8      	; 0x14f2 <strchr+0x10>
    14ea:	88 23       	and	r24, r24
    14ec:	d9 f7       	brne	.-10     	; 0x14e4 <strchr+0x2>
    14ee:	99 27       	eor	r25, r25
    14f0:	08 95       	ret
    14f2:	31 97       	sbiw	r30, 0x01	; 1
    14f4:	cf 01       	movw	r24, r30
    14f6:	08 95       	ret

000014f8 <strcpy>:
    14f8:	fb 01       	movw	r30, r22
    14fa:	dc 01       	movw	r26, r24
    14fc:	01 90       	ld	r0, Z+
    14fe:	0d 92       	st	X+, r0
    1500:	00 20       	and	r0, r0
    1502:	e1 f7       	brne	.-8      	; 0x14fc <strcpy+0x4>
    1504:	08 95       	ret

00001506 <strnlen>:
    1506:	fc 01       	movw	r30, r24
    1508:	61 50       	subi	r22, 0x01	; 1
    150a:	70 40       	sbci	r23, 0x00	; 0
    150c:	01 90       	ld	r0, Z+
    150e:	01 10       	cpse	r0, r1
    1510:	d8 f7       	brcc	.-10     	; 0x1508 <strnlen+0x2>
    1512:	80 95       	com	r24
    1514:	90 95       	com	r25
    1516:	8e 0f       	add	r24, r30
    1518:	9f 1f       	adc	r25, r31
    151a:	08 95       	ret

0000151c <__itoa_ncheck>:
    151c:	bb 27       	eor	r27, r27
    151e:	4a 30       	cpi	r20, 0x0A	; 10
    1520:	31 f4       	brne	.+12     	; 0x152e <__itoa_ncheck+0x12>
    1522:	99 23       	and	r25, r25
    1524:	22 f4       	brpl	.+8      	; 0x152e <__itoa_ncheck+0x12>
    1526:	bd e2       	ldi	r27, 0x2D	; 45
    1528:	90 95       	com	r25
    152a:	81 95       	neg	r24
    152c:	9f 4f       	sbci	r25, 0xFF	; 255
    152e:	0c 94 a2 0a 	jmp	0x1544	; 0x1544 <__utoa_common>

00001532 <__mulhi_const_10>:
    1532:	7a e0       	ldi	r23, 0x0A	; 10
    1534:	97 9f       	mul	r25, r23
    1536:	90 2d       	mov	r25, r0
    1538:	87 9f       	mul	r24, r23
    153a:	80 2d       	mov	r24, r0
    153c:	91 0d       	add	r25, r1
    153e:	11 24       	eor	r1, r1
    1540:	08 95       	ret

00001542 <__utoa_ncheck>:
    1542:	bb 27       	eor	r27, r27

00001544 <__utoa_common>:
    1544:	fb 01       	movw	r30, r22
    1546:	55 27       	eor	r21, r21
    1548:	aa 27       	eor	r26, r26
    154a:	88 0f       	add	r24, r24
    154c:	99 1f       	adc	r25, r25
    154e:	aa 1f       	adc	r26, r26
    1550:	a4 17       	cp	r26, r20
    1552:	10 f0       	brcs	.+4      	; 0x1558 <__utoa_common+0x14>
    1554:	a4 1b       	sub	r26, r20
    1556:	83 95       	inc	r24
    1558:	50 51       	subi	r21, 0x10	; 16
    155a:	b9 f7       	brne	.-18     	; 0x154a <__utoa_common+0x6>
    155c:	a0 5d       	subi	r26, 0xD0	; 208
    155e:	aa 33       	cpi	r26, 0x3A	; 58
    1560:	08 f0       	brcs	.+2      	; 0x1564 <__utoa_common+0x20>
    1562:	a9 5d       	subi	r26, 0xD9	; 217
    1564:	a1 93       	st	Z+, r26
    1566:	00 97       	sbiw	r24, 0x00	; 0
    1568:	79 f7       	brne	.-34     	; 0x1548 <__utoa_common+0x4>
    156a:	b1 11       	cpse	r27, r1
    156c:	b1 93       	st	Z+, r27
    156e:	11 92       	st	Z+, r1
    1570:	cb 01       	movw	r24, r22
    1572:	0c 94 55 0b 	jmp	0x16aa	; 0x16aa <strrev>

00001576 <fputc>:
    1576:	0f 93       	push	r16
    1578:	1f 93       	push	r17
    157a:	cf 93       	push	r28
    157c:	df 93       	push	r29
    157e:	fb 01       	movw	r30, r22
    1580:	23 81       	ldd	r18, Z+3	; 0x03
    1582:	21 fd       	sbrc	r18, 1
    1584:	03 c0       	rjmp	.+6      	; 0x158c <fputc+0x16>
    1586:	8f ef       	ldi	r24, 0xFF	; 255
    1588:	9f ef       	ldi	r25, 0xFF	; 255
    158a:	2c c0       	rjmp	.+88     	; 0x15e4 <fputc+0x6e>
    158c:	22 ff       	sbrs	r18, 2
    158e:	16 c0       	rjmp	.+44     	; 0x15bc <fputc+0x46>
    1590:	46 81       	ldd	r20, Z+6	; 0x06
    1592:	57 81       	ldd	r21, Z+7	; 0x07
    1594:	24 81       	ldd	r18, Z+4	; 0x04
    1596:	35 81       	ldd	r19, Z+5	; 0x05
    1598:	42 17       	cp	r20, r18
    159a:	53 07       	cpc	r21, r19
    159c:	44 f4       	brge	.+16     	; 0x15ae <fputc+0x38>
    159e:	a0 81       	ld	r26, Z
    15a0:	b1 81       	ldd	r27, Z+1	; 0x01
    15a2:	9d 01       	movw	r18, r26
    15a4:	2f 5f       	subi	r18, 0xFF	; 255
    15a6:	3f 4f       	sbci	r19, 0xFF	; 255
    15a8:	31 83       	std	Z+1, r19	; 0x01
    15aa:	20 83       	st	Z, r18
    15ac:	8c 93       	st	X, r24
    15ae:	26 81       	ldd	r18, Z+6	; 0x06
    15b0:	37 81       	ldd	r19, Z+7	; 0x07
    15b2:	2f 5f       	subi	r18, 0xFF	; 255
    15b4:	3f 4f       	sbci	r19, 0xFF	; 255
    15b6:	37 83       	std	Z+7, r19	; 0x07
    15b8:	26 83       	std	Z+6, r18	; 0x06
    15ba:	14 c0       	rjmp	.+40     	; 0x15e4 <fputc+0x6e>
    15bc:	8b 01       	movw	r16, r22
    15be:	ec 01       	movw	r28, r24
    15c0:	fb 01       	movw	r30, r22
    15c2:	00 84       	ldd	r0, Z+8	; 0x08
    15c4:	f1 85       	ldd	r31, Z+9	; 0x09
    15c6:	e0 2d       	mov	r30, r0
    15c8:	09 95       	icall
    15ca:	89 2b       	or	r24, r25
    15cc:	e1 f6       	brne	.-72     	; 0x1586 <fputc+0x10>
    15ce:	d8 01       	movw	r26, r16
    15d0:	16 96       	adiw	r26, 0x06	; 6
    15d2:	8d 91       	ld	r24, X+
    15d4:	9c 91       	ld	r25, X
    15d6:	17 97       	sbiw	r26, 0x07	; 7
    15d8:	01 96       	adiw	r24, 0x01	; 1
    15da:	17 96       	adiw	r26, 0x07	; 7
    15dc:	9c 93       	st	X, r25
    15de:	8e 93       	st	-X, r24
    15e0:	16 97       	sbiw	r26, 0x06	; 6
    15e2:	ce 01       	movw	r24, r28
    15e4:	df 91       	pop	r29
    15e6:	cf 91       	pop	r28
    15e8:	1f 91       	pop	r17
    15ea:	0f 91       	pop	r16
    15ec:	08 95       	ret

000015ee <__ultoa_invert>:
    15ee:	fa 01       	movw	r30, r20
    15f0:	aa 27       	eor	r26, r26
    15f2:	28 30       	cpi	r18, 0x08	; 8
    15f4:	51 f1       	breq	.+84     	; 0x164a <__ultoa_invert+0x5c>
    15f6:	20 31       	cpi	r18, 0x10	; 16
    15f8:	81 f1       	breq	.+96     	; 0x165a <__ultoa_invert+0x6c>
    15fa:	e8 94       	clt
    15fc:	6f 93       	push	r22
    15fe:	6e 7f       	andi	r22, 0xFE	; 254
    1600:	6e 5f       	subi	r22, 0xFE	; 254
    1602:	7f 4f       	sbci	r23, 0xFF	; 255
    1604:	8f 4f       	sbci	r24, 0xFF	; 255
    1606:	9f 4f       	sbci	r25, 0xFF	; 255
    1608:	af 4f       	sbci	r26, 0xFF	; 255
    160a:	b1 e0       	ldi	r27, 0x01	; 1
    160c:	3e d0       	rcall	.+124    	; 0x168a <__ultoa_invert+0x9c>
    160e:	b4 e0       	ldi	r27, 0x04	; 4
    1610:	3c d0       	rcall	.+120    	; 0x168a <__ultoa_invert+0x9c>
    1612:	67 0f       	add	r22, r23
    1614:	78 1f       	adc	r23, r24
    1616:	89 1f       	adc	r24, r25
    1618:	9a 1f       	adc	r25, r26
    161a:	a1 1d       	adc	r26, r1
    161c:	68 0f       	add	r22, r24
    161e:	79 1f       	adc	r23, r25
    1620:	8a 1f       	adc	r24, r26
    1622:	91 1d       	adc	r25, r1
    1624:	a1 1d       	adc	r26, r1
    1626:	6a 0f       	add	r22, r26
    1628:	71 1d       	adc	r23, r1
    162a:	81 1d       	adc	r24, r1
    162c:	91 1d       	adc	r25, r1
    162e:	a1 1d       	adc	r26, r1
    1630:	20 d0       	rcall	.+64     	; 0x1672 <__ultoa_invert+0x84>
    1632:	09 f4       	brne	.+2      	; 0x1636 <__ultoa_invert+0x48>
    1634:	68 94       	set
    1636:	3f 91       	pop	r19
    1638:	2a e0       	ldi	r18, 0x0A	; 10
    163a:	26 9f       	mul	r18, r22
    163c:	11 24       	eor	r1, r1
    163e:	30 19       	sub	r19, r0
    1640:	30 5d       	subi	r19, 0xD0	; 208
    1642:	31 93       	st	Z+, r19
    1644:	de f6       	brtc	.-74     	; 0x15fc <__ultoa_invert+0xe>
    1646:	cf 01       	movw	r24, r30
    1648:	08 95       	ret
    164a:	46 2f       	mov	r20, r22
    164c:	47 70       	andi	r20, 0x07	; 7
    164e:	40 5d       	subi	r20, 0xD0	; 208
    1650:	41 93       	st	Z+, r20
    1652:	b3 e0       	ldi	r27, 0x03	; 3
    1654:	0f d0       	rcall	.+30     	; 0x1674 <__ultoa_invert+0x86>
    1656:	c9 f7       	brne	.-14     	; 0x164a <__ultoa_invert+0x5c>
    1658:	f6 cf       	rjmp	.-20     	; 0x1646 <__ultoa_invert+0x58>
    165a:	46 2f       	mov	r20, r22
    165c:	4f 70       	andi	r20, 0x0F	; 15
    165e:	40 5d       	subi	r20, 0xD0	; 208
    1660:	4a 33       	cpi	r20, 0x3A	; 58
    1662:	18 f0       	brcs	.+6      	; 0x166a <__ultoa_invert+0x7c>
    1664:	49 5d       	subi	r20, 0xD9	; 217
    1666:	31 fd       	sbrc	r19, 1
    1668:	40 52       	subi	r20, 0x20	; 32
    166a:	41 93       	st	Z+, r20
    166c:	02 d0       	rcall	.+4      	; 0x1672 <__ultoa_invert+0x84>
    166e:	a9 f7       	brne	.-22     	; 0x165a <__ultoa_invert+0x6c>
    1670:	ea cf       	rjmp	.-44     	; 0x1646 <__ultoa_invert+0x58>
    1672:	b4 e0       	ldi	r27, 0x04	; 4
    1674:	a6 95       	lsr	r26
    1676:	97 95       	ror	r25
    1678:	87 95       	ror	r24
    167a:	77 95       	ror	r23
    167c:	67 95       	ror	r22
    167e:	ba 95       	dec	r27
    1680:	c9 f7       	brne	.-14     	; 0x1674 <__ultoa_invert+0x86>
    1682:	00 97       	sbiw	r24, 0x00	; 0
    1684:	61 05       	cpc	r22, r1
    1686:	71 05       	cpc	r23, r1
    1688:	08 95       	ret
    168a:	9b 01       	movw	r18, r22
    168c:	ac 01       	movw	r20, r24
    168e:	0a 2e       	mov	r0, r26
    1690:	06 94       	lsr	r0
    1692:	57 95       	ror	r21
    1694:	47 95       	ror	r20
    1696:	37 95       	ror	r19
    1698:	27 95       	ror	r18
    169a:	ba 95       	dec	r27
    169c:	c9 f7       	brne	.-14     	; 0x1690 <__ultoa_invert+0xa2>
    169e:	62 0f       	add	r22, r18
    16a0:	73 1f       	adc	r23, r19
    16a2:	84 1f       	adc	r24, r20
    16a4:	95 1f       	adc	r25, r21
    16a6:	a0 1d       	adc	r26, r0
    16a8:	08 95       	ret

000016aa <strrev>:
    16aa:	dc 01       	movw	r26, r24
    16ac:	fc 01       	movw	r30, r24
    16ae:	67 2f       	mov	r22, r23
    16b0:	71 91       	ld	r23, Z+
    16b2:	77 23       	and	r23, r23
    16b4:	e1 f7       	brne	.-8      	; 0x16ae <strrev+0x4>
    16b6:	32 97       	sbiw	r30, 0x02	; 2
    16b8:	04 c0       	rjmp	.+8      	; 0x16c2 <strrev+0x18>
    16ba:	7c 91       	ld	r23, X
    16bc:	6d 93       	st	X+, r22
    16be:	70 83       	st	Z, r23
    16c0:	62 91       	ld	r22, -Z
    16c2:	ae 17       	cp	r26, r30
    16c4:	bf 07       	cpc	r27, r31
    16c6:	c8 f3       	brcs	.-14     	; 0x16ba <strrev+0x10>
    16c8:	08 95       	ret

000016ca <_exit>:
    16ca:	f8 94       	cli

000016cc <__stop_program>:
    16cc:	ff cf       	rjmp	.-2      	; 0x16cc <__stop_program>
